(dp0
S'2015-11-19'
p1
(dp2
I278
(lp3
S'MIN'
p4
aS'BOS'
p5
asI279
(lp6
S'SJS'
p7
aS'PHI'
p8
asI280
(lp9
S'COL'
p10
aS'PIT'
p11
asI281
(lp12
S'DAL'
p13
aS'WSH'
p14
asI282
(lp15
S'ARI'
p16
aS'MTL'
p17
asI283
(lp18
S'CBJ'
p19
aS'OTT'
p20
asI284
(lp21
S'NYR'
p22
aS'TBL'
p23
asI285
(lp24
S'ANA'
p25
aS'FLA'
p26
asI286
(lp27
S'BUF'
p28
aS'STL'
p29
assS'2015-11-18'
p30
(dp31
I275
(lp32
S'VAN'
p33
aS'WPG'
p34
asI276
(lp35
S'WSH'
p36
aS'DET'
p37
asI277
(lp38
S'CHI'
p39
aS'EDM'
p40
assS'2016-01-12'
p41
(dp42
I640
(lp43
S'TBL'
p44
aS'COL'
p45
asI641
(lp46
S'EDM'
p47
aS'ARI'
p48
asI634
(lp49
S'CBJ'
p50
aS'NYI'
p51
asI635
(lp52
S'PIT'
p53
aS'CAR'
p54
asI636
(lp55
S'NJD'
p56
aS'STL'
p57
asI637
(lp58
S'BUF'
p59
aS'MIN'
p60
asI638
(lp61
S'SJS'
p62
aS'WPG'
p63
asI639
(lp64
S'NSH'
p65
aS'CHI'
p66
assS'2015-11-11'
p67
(dp68
I228
(lp69
S'MTL'
p70
aS'PIT'
p71
asI229
(lp72
S'EDM'
p73
aS'ANA'
p74
assS'2015-11-10'
p75
(dp76
I224
(lp77
S'WPG'
p78
aS'MIN'
p79
asI225
(lp80
S'TOR'
p81
aS'DAL'
p82
asI226
(lp83
S'ARI'
p84
aS'LAK'
p85
asI227
(lp86
S'NYI'
p87
aS'SJS'
p88
asI216
(lp89
S'STL'
p90
aS'NJD'
p91
asI217
(lp92
S'CAR'
p93
aS'NYR'
p94
asI218
(lp95
S'COL'
p96
aS'PHI'
p97
asI219
(lp98
S'VAN'
p99
aS'CBJ'
p100
asI220
(lp101
S'WSH'
p102
aS'DET'
p103
asI221
(lp104
S'BUF'
p105
aS'TBL'
p106
asI222
(lp107
S'CGY'
p108
aS'FLA'
p109
asI223
(lp110
S'OTT'
p111
aS'NSH'
p112
assS'2015-11-13'
p113
(dp114
I242
(lp115
S'CBJ'
p116
aS'PIT'
p117
asI243
(lp118
S'CGY'
p119
aS'WSH'
p120
asI244
(lp121
S'SJS'
p122
aS'DET'
p123
asI245
(lp124
S'NYI'
p125
aS'ANA'
p126
assS'2015-11-12'
p127
(dp128
I230
(lp129
S'COL'
p130
aS'BOS'
p131
asI231
(lp132
S'STL'
p133
aS'NYR'
p134
asI232
(lp135
S'WSH'
p136
aS'PHI'
p137
asI233
(lp138
S'MIN'
p139
aS'CAR'
p140
asI234
(lp141
S'VAN'
p142
aS'OTT'
p143
asI235
(lp144
S'CGY'
p145
aS'TBL'
p146
asI236
(lp147
S'BUF'
p148
aS'FLA'
p149
asI237
(lp150
S'TOR'
p151
aS'NSH'
p152
asI238
(lp153
S'NJD'
p154
aS'CHI'
p155
asI239
(lp156
S'WPG'
p157
aS'DAL'
p158
asI240
(lp159
S'EDM'
p160
aS'ARI'
p161
asI241
(lp162
S'NYI'
p163
aS'LAK'
p164
assS'2015-11-15'
p165
(dp166
I259
(lp167
S'TOR'
p168
aS'NYR'
p169
asI260
(lp170
S'CGY'
p171
aS'CHI'
p172
assS'2015-11-14'
p173
(dp174
I256
(lp175
S'CHI'
p176
aS'STL'
p177
asI257
(lp178
S'MIN'
p179
aS'DAL'
p180
asI258
(lp181
S'EDM'
p182
aS'LAK'
p183
asI246
(lp184
S'NYR'
p185
aS'OTT'
p186
asI247
(lp187
S'DET'
p188
aS'BOS'
p189
asI248
(lp190
S'SJS'
p191
aS'BUF'
p192
asI249
(lp193
S'VAN'
p194
aS'TOR'
p195
asI250
(lp196
S'COL'
p197
aS'MTL'
p198
asI251
(lp199
S'FLA'
p200
aS'TBL'
p201
asI252
(lp202
S'PIT'
p203
aS'NJD'
p204
asI253
(lp205
S'PHI'
p206
aS'CAR'
p207
asI254
(lp208
S'ARI'
p209
aS'CBJ'
p210
asI255
(lp211
S'WPG'
p212
aS'NSH'
p213
assS'2015-11-17'
p214
(dp215
I267
(lp216
S'SJS'
p217
aS'BOS'
p218
asI268
(lp219
S'DAL'
p220
aS'BUF'
p221
asI269
(lp222
S'LAK'
p223
aS'PHI'
p224
asI270
(lp225
S'MIN'
p226
aS'PIT'
p227
asI271
(lp228
S'STL'
p229
aS'CBJ'
p230
asI272
(lp231
S'COL'
p232
aS'TOR'
p233
asI273
(lp234
S'ANA'
p235
aS'NSH'
p236
asI274
(lp237
S'NJD'
p238
aS'CGY'
p239
assS'2015-11-16'
p240
(dp241
I261
(lp242
S'ARI'
p243
aS'NYI'
p244
asI262
(lp245
S'ANA'
p246
aS'CAR'
p247
asI263
(lp248
S'VAN'
p249
aS'MTL'
p250
asI264
(lp251
S'DET'
p252
aS'OTT'
p253
asI265
(lp254
S'TBL'
p255
aS'FLA'
p256
asI266
(lp257
S'WPG'
p258
aS'STL'
p259
assS'2016-01-04'
p260
(dp261
I584
(lp262
S'OTT'
p263
aS'STL'
p264
asI585
(lp265
S'LAK'
p266
aS'COL'
p267
asI586
(lp268
S'CAR'
p269
aS'EDM'
p270
asI587
(lp271
S'ARI'
p272
aS'VAN'
p273
asI583
(lp274
S'DET'
p275
aS'NJD'
p276
assS'2016-01-05'
p277
(dp278
I588
(lp279
S'WSH'
p280
aS'BOS'
p281
asI589
(lp282
S'FLA'
p283
aS'BUF'
p284
asI590
(lp285
S'DAL'
p286
aS'NYR'
p287
asI591
(lp288
S'MTL'
p289
aS'PHI'
p290
asI592
(lp291
S'CHI'
p292
aS'PIT'
p293
asI593
(lp294
S'MIN'
p295
aS'CBJ'
p296
asI594
(lp297
S'WPG'
p298
aS'NSH'
p299
asI595
(lp300
S'TBL'
p301
aS'CGY'
p302
assS'2016-01-06'
p303
(dp304
I600
(lp305
S'TOR'
p306
aS'ANA'
p307
asI596
(lp308
S'NJD'
p309
aS'MTL'
p310
asI597
(lp311
S'PIT'
p312
aS'CHI'
p313
asI598
(lp314
S'STL'
p315
aS'COL'
p316
asI599
(lp317
S'CAR'
p318
aS'VAN'
p319
assS'2016-01-07'
p320
(dp321
I601
(lp322
S'WSH'
p323
aS'NYI'
p324
asI602
(lp325
S'FLA'
p326
aS'OTT'
p327
asI603
(lp328
S'PHI'
p329
aS'MIN'
p330
asI604
(lp331
S'WPG'
p332
aS'DAL'
p333
asI605
(lp334
S'ARI'
p335
aS'CGY'
p336
asI606
(lp337
S'TOR'
p338
aS'LAK'
p339
asI607
(lp340
S'DET'
p341
aS'SJS'
p342
assS'2016-01-01'
p343
(dp344
I565
(lp345
S'MTL'
p346
aS'BOS'
p347
asI566
(lp348
S'ANA'
p349
aS'VAN'
p350
assS'2016-01-02'
p351
(dp352
I576
(lp353
S'WSH'
p354
aS'CBJ'
p355
asI577
(lp356
S'CGY'
p357
aS'COL'
p358
asI578
(lp359
S'WPG'
p360
aS'SJS'
p361
asI567
(lp362
S'DET'
p363
aS'BUF'
p364
asI568
(lp365
S'ARI'
p366
aS'EDM'
p367
asI569
(lp368
S'PHI'
p369
aS'LAK'
p370
asI570
(lp371
S'STL'
p372
aS'TOR'
p373
asI571
(lp374
S'MIN'
p375
aS'TBL'
p376
asI572
(lp377
S'NYR'
p378
aS'FLA'
p379
asI573
(lp380
S'DAL'
p381
aS'NJD'
p382
asI574
(lp383
S'NYI'
p384
aS'PIT'
p385
asI575
(lp386
S'NSH'
p387
aS'CAR'
p388
assS'2016-01-03'
p389
(dp390
I579
(lp391
S'DAL'
p392
aS'NYI'
p393
asI580
(lp394
S'MIN'
p395
aS'FLA'
p396
asI581
(lp397
S'OTT'
p398
aS'CHI'
p399
asI582
(lp400
S'WPG'
p401
aS'ANA'
p402
assS'2016-01-17'
p403
(dp404
I672
(lp405
S'FLA'
p406
aS'TBL'
p407
asI673
(lp408
S'NYR'
p409
aS'WSH'
p410
asI674
(lp411
S'MTL'
p412
aS'CHI'
p413
asI675
(lp414
S'PHI'
p415
aS'DET'
p416
asI676
(lp417
S'LAK'
p418
aS'ANA'
p419
asI670
(lp420
S'CAR'
p421
aS'PIT'
p422
asI671
(lp423
S'VAN'
p424
aS'NYI'
p425
assS'2016-01-08'
p426
(dp427
I608
(lp428
S'BOS'
p429
aS'NJD'
p430
asI609
(lp431
S'CBJ'
p432
aS'CAR'
p433
asI610
(lp434
S'BUF'
p435
aS'CHI'
p436
asI611
(lp437
S'NSH'
p438
aS'COL'
p439
asI612
(lp440
S'TBL'
p441
aS'EDM'
p442
asI613
(lp443
S'STL'
p444
aS'ANA'
p445
assS'2016-01-09'
p446
(dp447
I614
(lp448
S'WSH'
p449
aS'NYR'
p450
asI615
(lp451
S'NYI'
p452
aS'PHI'
p453
asI616
(lp454
S'PIT'
p455
aS'MTL'
p456
asI617
(lp457
S'BOS'
p458
aS'OTT'
p459
asI618
(lp460
S'CAR'
p461
aS'CBJ'
p462
asI619
(lp463
S'TOR'
p464
aS'SJS'
p465
asI620
(lp466
S'MIN'
p467
aS'DAL'
p468
asI621
(lp469
S'NSH'
p470
aS'ARI'
p471
asI622
(lp472
S'TBL'
p473
aS'VAN'
p474
asI623
(lp475
S'STL'
p476
aS'LAK'
p477
assS'2016-01-16'
p478
(dp479
I660
(lp480
S'NYR'
p481
aS'PHI'
p482
asI661
(lp483
S'OTT'
p484
aS'LAK'
p485
asI662
(lp486
S'TOR'
p487
aS'BOS'
p488
asI663
(lp489
S'WSH'
p490
aS'BUF'
p491
asI664
(lp492
S'COL'
p493
aS'CBJ'
p494
asI665
(lp495
S'MTL'
p496
aS'STL'
p497
asI666
(lp498
S'MIN'
p499
aS'NSH'
p500
asI667
(lp501
S'NJD'
p502
aS'ARI'
p503
asI668
(lp504
S'CGY'
p505
aS'EDM'
p506
asI669
(lp507
S'DAL'
p508
aS'SJS'
p509
assS'2015-12-21'
p510
(dp511
I499
(lp512
S'ANA'
p513
aS'NYI'
p514
asI500
(lp515
S'STL'
p516
aS'PHI'
p517
asI501
(lp518
S'CBJ'
p519
aS'PIT'
p520
asI502
(lp521
S'WSH'
p522
aS'CAR'
p523
asI503
(lp524
S'MTL'
p525
aS'NSH'
p526
asI504
(lp527
S'DAL'
p528
aS'MIN'
p529
asI505
(lp530
S'TOR'
p531
aS'COL'
p532
asI506
(lp533
S'WPG'
p534
aS'EDM'
p535
assS'2015-12-20'
p536
(dp537
I493
(lp538
S'VAN'
p539
aS'FLA'
p540
asI494
(lp541
S'NJD'
p542
aS'BOS'
p543
asI495
(lp544
S'OTT'
p545
aS'TBL'
p546
asI496
(lp547
S'CGY'
p548
aS'DET'
p549
asI497
(lp550
S'WSH'
p551
aS'NYR'
p552
asI498
(lp553
S'SJS'
p554
aS'CHI'
p555
assS'2015-12-22'
p556
(dp557
I512
(lp558
S'MTL'
p559
aS'MIN'
p560
asI513
(lp561
S'CHI'
p562
aS'DAL'
p563
asI514
(lp564
S'WPG'
p565
aS'CGY'
p566
asI515
(lp567
S'TOR'
p568
aS'ARI'
p569
asI516
(lp570
S'SJS'
p571
aS'LAK'
p572
asI507
(lp573
S'STL'
p574
aS'BOS'
p575
asI508
(lp576
S'ANA'
p577
aS'NYR'
p578
asI509
(lp579
S'NJD'
p580
aS'DET'
p581
asI510
(lp582
S'VAN'
p583
aS'TBL'
p584
asI511
(lp585
S'OTT'
p586
aS'FLA'
p587
assS'2016-01-15'
p588
(dp589
I654
(lp590
S'BOS'
p591
aS'BUF'
p592
asI655
(lp593
S'CHI'
p594
aS'TOR'
p595
asI656
(lp596
S'VAN'
p597
aS'CAR'
p598
asI657
(lp599
S'PIT'
p600
aS'TBL'
p601
asI658
(lp602
S'WPG'
p603
aS'MIN'
p604
asI659
(lp605
S'DAL'
p606
aS'ANA'
p607
assS'2015-12-27'
p608
(dp609
I526
(lp610
S'BOS'
p611
aS'OTT'
p612
asI527
(lp613
S'CBJ'
p614
aS'FLA'
p615
asI528
(lp616
S'TOR'
p617
aS'NYI'
p618
asI529
(lp619
S'STL'
p620
aS'DAL'
p621
asI530
(lp622
S'CAR'
p623
aS'CHI'
p624
asI531
(lp625
S'PIT'
p626
aS'WPG'
p627
asI532
(lp628
S'ARI'
p629
aS'COL'
p630
asI533
(lp631
S'PHI'
p632
aS'ANA'
p633
asI534
(lp634
S'EDM'
p635
aS'CGY'
p636
assS'2015-12-26'
p637
(dp638
I517
(lp639
S'BUF'
p640
aS'BOS'
p641
asI518
(lp642
S'CBJ'
p643
aS'TBL'
p644
asI519
(lp645
S'MTL'
p646
aS'WSH'
p647
asI520
(lp648
S'NJD'
p649
aS'CAR'
p650
asI521
(lp651
S'DAL'
p652
aS'STL'
p653
asI522
(lp654
S'DET'
p655
aS'NSH'
p656
asI523
(lp657
S'PIT'
p658
aS'MIN'
p659
asI524
(lp660
S'LAK'
p661
aS'ARI'
p662
asI525
(lp663
S'EDM'
p664
aS'VAN'
p665
assS'2015-12-29'
p666
(dp667
I544
(lp668
S'DAL'
p669
aS'CBJ'
p670
asI545
(lp671
S'MTL'
p672
aS'FLA'
p673
asI546
(lp674
S'NSH'
p675
aS'STL'
p676
asI547
(lp677
S'DET'
p678
aS'WPG'
p679
asI548
(lp680
S'ANA'
p681
aS'CGY'
p682
asI549
(lp683
S'LAK'
p684
aS'EDM'
p685
asI550
(lp686
S'CHI'
p687
aS'ARI'
p688
asI541
(lp689
S'OTT'
p690
aS'BOS'
p691
asI542
(lp692
S'NYI'
p693
aS'TOR'
p694
asI543
(lp695
S'CAR'
p696
aS'NJD'
p697
assS'2015-12-28'
p698
(dp699
I535
(lp700
S'WSH'
p701
aS'BUF'
p702
asI536
(lp703
S'MTL'
p704
aS'TBL'
p705
asI537
(lp706
S'NYR'
p707
aS'NSH'
p708
asI538
(lp709
S'DET'
p710
aS'MIN'
p711
asI539
(lp712
S'LAK'
p713
aS'VAN'
p714
asI540
(lp715
S'COL'
p716
aS'SJS'
p717
assS'2016-03-04'
p718
(dp719
I968
(lp720
S'NJD'
p721
aS'DAL'
p722
asI966
(lp723
S'NYR'
p724
aS'WSH'
p725
asI967
(lp726
S'EDM'
p727
aS'CBJ'
p728
assS'2016-01-14'
p729
(dp730
I646
(lp731
S'NYR'
p732
aS'NYI'
p733
asI647
(lp734
S'VAN'
p735
aS'WSH'
p736
asI648
(lp737
S'CHI'
p738
aS'MTL'
p739
asI649
(lp740
S'CAR'
p741
aS'STL'
p742
asI650
(lp743
S'NSH'
p744
aS'WPG'
p745
asI651
(lp746
S'NJD'
p747
aS'COL'
p748
asI652
(lp749
S'DET'
p750
aS'ARI'
p751
asI653
(lp752
S'EDM'
p753
aS'SJS'
p754
assS'2016-03-02'
p755
(dp756
I952
(lp757
S'CHI'
p758
aS'DET'
p759
asI953
(lp760
S'MTL'
p761
aS'ANA'
p762
asI951
(lp763
S'TOR'
p764
aS'WSH'
p765
assS'2016-03-03'
p766
(dp767
I960
(lp768
S'NJD'
p769
aS'NSH'
p770
asI961
(lp771
S'NYI'
p772
aS'WPG'
p773
asI962
(lp774
S'FLA'
p775
aS'COL'
p776
asI963
(lp777
S'ANA'
p778
aS'ARI'
p779
asI964
(lp780
S'SJS'
p781
aS'VAN'
p782
asI965
(lp783
S'MTL'
p784
aS'LAK'
p785
asI954
(lp786
S'CHI'
p787
aS'BOS'
p788
asI955
(lp789
S'CGY'
p790
aS'BUF'
p791
asI956
(lp792
S'EDM'
p793
aS'PHI'
p794
asI957
(lp795
S'NYR'
p796
aS'PIT'
p797
asI958
(lp798
S'MIN'
p799
aS'TOR'
p800
asI959
(lp801
S'TBL'
p802
aS'OTT'
p803
assS'2016-03-01'
p804
(dp805
I943
(lp806
S'CGY'
p807
aS'BOS'
p808
asI944
(lp809
S'EDM'
p810
aS'BUF'
p811
asI945
(lp812
S'CAR'
p813
aS'NJD'
p814
asI946
(lp815
S'STL'
p816
aS'OTT'
p817
asI947
(lp818
S'DAL'
p819
aS'NSH'
p820
asI948
(lp821
S'COL'
p822
aS'MIN'
p823
asI949
(lp824
S'FLA'
p825
aS'WPG'
p826
asI950
(lp827
S'NYI'
p828
aS'VAN'
p829
assS'2016-03-26'
p830
(dp831
I1120
(lp832
S'NYR'
p833
aS'MTL'
p834
asI1121
(lp835
S'ANA'
p836
aS'OTT'
p837
asI1122
(lp838
S'FLA'
p839
aS'TBL'
p840
asI1123
(lp841
S'STL'
p842
aS'WSH'
p843
asI1124
(lp844
S'NYI'
p845
aS'CAR'
p846
asI1125
(lp847
S'CBJ'
p848
aS'NSH'
p849
asI1126
(lp850
S'CHI'
p851
aS'CGY'
p852
asI1127
(lp853
S'PHI'
p854
aS'ARI'
p855
asI1128
(lp856
S'EDM'
p857
aS'LAK'
p858
asI1115
(lp859
S'PIT'
p860
aS'DET'
p861
asI1116
(lp862
S'WPG'
p863
aS'BUF'
p864
asI1117
(lp865
S'MIN'
p866
aS'COL'
p867
asI1118
(lp868
S'DAL'
p869
aS'SJS'
p870
asI1119
(lp871
S'BOS'
p872
aS'TOR'
p873
assS'2016-03-27'
p874
(dp875
I1129
(lp876
S'NJD'
p877
aS'CAR'
p878
asI1130
(lp879
S'PIT'
p880
aS'NYR'
p881
asI1131
(lp882
S'CHI'
p883
aS'VAN'
p884
assS'2016-03-28'
p885
(dp886
I1132
(lp887
S'WPG'
p888
aS'PHI'
p889
asI1133
(lp890
S'CBJ'
p891
aS'WSH'
p892
asI1134
(lp893
S'BUF'
p894
aS'DET'
p895
asI1135
(lp896
S'TOR'
p897
aS'TBL'
p898
asI1136
(lp899
S'COL'
p900
aS'NSH'
p901
asI1137
(lp902
S'ANA'
p903
aS'EDM'
p904
asI1138
(lp905
S'CGY'
p906
aS'ARI'
p907
asI1139
(lp908
S'LAK'
p909
aS'SJS'
p910
assS'2016-01-19'
p911
(dp912
I682
(lp913
S'CGY'
p914
aS'NJD'
p915
asI683
(lp916
S'VAN'
p917
aS'NYR'
p918
asI684
(lp919
S'TOR'
p920
aS'PHI'
p921
asI685
(lp922
S'WSH'
p923
aS'CBJ'
p924
asI686
(lp925
S'BOS'
p926
aS'MTL'
p927
asI687
(lp928
S'EDM'
p929
aS'TBL'
p930
asI688
(lp931
S'CHI'
p932
aS'NSH'
p933
asI689
(lp934
S'DAL'
p935
aS'LAK'
p936
assS'2016-01-18'
p937
(dp938
I680
(lp939
S'BUF'
p940
aS'ARI'
p941
asI681
(lp942
S'OTT'
p943
aS'SJS'
p944
asI677
(lp945
S'EDM'
p946
aS'FLA'
p947
asI678
(lp948
S'PIT'
p949
aS'STL'
p950
asI679
(lp951
S'COL'
p952
aS'WPG'
p953
assS'2015-11-28'
p954
(dp955
I352
(lp956
S'CGY'
p957
aS'SJS'
p958
asI353
(lp959
S'CHI'
p960
aS'LAK'
p961
asI342
(lp962
S'PHI'
p963
aS'NYR'
p964
asI343
(lp965
S'WSH'
p966
aS'TOR'
p967
asI344
(lp968
S'NJD'
p969
aS'MTL'
p970
asI345
(lp971
S'NYI'
p972
aS'TBL'
p973
asI346
(lp974
S'EDM'
p975
aS'PIT'
p976
asI347
(lp977
S'CBJ'
p978
aS'STL'
p979
asI348
(lp980
S'BUF'
p981
aS'NSH'
p982
asI349
(lp983
S'DAL'
p984
aS'MIN'
p985
asI350
(lp986
S'WPG'
p987
aS'COL'
p988
asI351
(lp989
S'OTT'
p990
aS'ARI'
p991
assS'2015-11-29'
p992
(dp993
I354
(lp994
S'FLA'
p995
aS'DET'
p996
assS'2016-03-29'
p997
(dp998
I1140
(lp999
S'BOS'
p1000
aS'NJD'
p1001
asI1141
(lp1002
S'CAR'
p1003
aS'NYI'
p1004
asI1142
(lp1005
S'BUF'
p1006
aS'PIT'
p1007
asI1143
(lp1008
S'DET'
p1009
aS'MTL'
p1010
asI1144
(lp1011
S'TOR'
p1012
aS'FLA'
p1013
asI1145
(lp1014
S'COL'
p1015
aS'STL'
p1016
asI1146
(lp1017
S'CHI'
p1018
aS'MIN'
p1019
asI1147
(lp1020
S'NSH'
p1021
aS'DAL'
p1022
asI1148
(lp1023
S'SJS'
p1024
aS'VAN'
p1025
assS'2015-11-24'
p1026
(dp1027
I315
(lp1028
S'OTT'
p1029
aS'DAL'
p1030
asI316
(lp1031
S'CGY'
p1032
aS'ANA'
p1033
assS'2015-11-25'
p1034
(dp1035
I320
(lp1036
S'MTL'
p1037
aS'NYR'
p1038
asI321
(lp1039
S'STL'
p1040
aS'PIT'
p1041
asI322
(lp1042
S'WPG'
p1043
aS'WSH'
p1044
asI323
(lp1045
S'EDM'
p1046
aS'CAR'
p1047
asI324
(lp1048
S'VAN'
p1049
aS'MIN'
p1050
asI325
(lp1051
S'BOS'
p1052
aS'DET'
p1053
asI326
(lp1054
S'LAK'
p1055
aS'TBL'
p1056
asI327
(lp1057
S'ANA'
p1058
aS'ARI'
p1059
asI328
(lp1060
S'OTT'
p1061
aS'COL'
p1062
asI329
(lp1063
S'CHI'
p1064
aS'SJS'
p1065
asI317
(lp1066
S'NSH'
p1067
aS'BUF'
p1068
asI318
(lp1069
S'CBJ'
p1070
aS'NJD'
p1071
asI319
(lp1072
S'PHI'
p1073
aS'NYI'
p1074
assS'2016-01-11'
p1075
(dp1076
I632
(lp1077
S'FLA'
p1078
aS'VAN'
p1079
asI633
(lp1080
S'DET'
p1081
aS'LAK'
p1082
asI630
(lp1083
S'BOS'
p1084
aS'NYR'
p1085
asI631
(lp1086
S'SJS'
p1087
aS'CGY'
p1088
assS'2015-11-27'
p1089
(dp1090
I330
(lp1091
S'NYR'
p1092
aS'BOS'
p1093
asI331
(lp1094
S'NSH'
p1095
aS'PHI'
p1096
asI332
(lp1097
S'WPG'
p1098
aS'MIN'
p1099
asI333
(lp1100
S'CHI'
p1101
aS'ANA'
p1102
asI334
(lp1103
S'TBL'
p1104
aS'WSH'
p1105
asI335
(lp1106
S'CAR'
p1107
aS'BUF'
p1108
asI336
(lp1109
S'MTL'
p1110
aS'NJD'
p1111
asI337
(lp1112
S'PIT'
p1113
aS'CBJ'
p1114
asI338
(lp1115
S'EDM'
p1116
aS'DET'
p1117
asI339
(lp1118
S'NYI'
p1119
aS'FLA'
p1120
asI340
(lp1121
S'VAN'
p1122
aS'DAL'
p1123
asI341
(lp1124
S'CGY'
p1125
aS'ARI'
p1126
assS'2015-11-20'
p1127
(dp1128
I288
(lp1129
S'NSH'
p1130
aS'CBJ'
p1131
asI289
(lp1132
S'LAK'
p1133
aS'DET'
p1134
asI290
(lp1135
S'MTL'
p1136
aS'NYI'
p1137
asI291
(lp1138
S'CHI'
p1139
aS'CGY'
p1140
asI292
(lp1141
S'NJD'
p1142
aS'EDM'
p1143
asI287
(lp1144
S'TOR'
p1145
aS'CAR'
p1146
assS'2015-11-21'
p1147
(dp1148
I293
(lp1149
S'TOR'
p1150
aS'BOS'
p1151
asI294
(lp1152
S'PHI'
p1153
aS'OTT'
p1154
asI295
(lp1155
S'ANA'
p1156
aS'TBL'
p1157
asI296
(lp1158
S'NYR'
p1159
aS'FLA'
p1160
asI297
(lp1161
S'SJS'
p1162
aS'PIT'
p1163
asI298
(lp1164
S'COL'
p1165
aS'WSH'
p1166
asI299
(lp1167
S'ARI'
p1168
aS'WPG'
p1169
asI300
(lp1170
S'DET'
p1171
aS'STL'
p1172
asI301
(lp1173
S'BUF'
p1174
aS'DAL'
p1175
asI302
(lp1176
S'NSH'
p1177
aS'MIN'
p1178
asI303
(lp1179
S'CHI'
p1180
aS'VAN'
p1181
assS'2015-11-22'
p1182
(dp1183
I304
(lp1184
S'LAK'
p1185
aS'CAR'
p1186
asI305
(lp1187
S'SJS'
p1188
aS'CBJ'
p1189
asI306
(lp1190
S'NYI'
p1191
aS'MTL'
p1192
asI307
(lp1193
S'NJD'
p1194
aS'VAN'
p1195
assS'2015-11-23'
p1196
(dp1197
I308
(lp1198
S'STL'
p1199
aS'BUF'
p1200
asI309
(lp1201
S'NSH'
p1202
aS'NYR'
p1203
asI310
(lp1204
S'CAR'
p1205
aS'PHI'
p1206
asI311
(lp1207
S'EDM'
p1208
aS'WSH'
p1209
asI312
(lp1210
S'BOS'
p1211
aS'TOR'
p1212
asI313
(lp1213
S'LAK'
p1214
aS'FLA'
p1215
asI314
(lp1216
S'COL'
p1217
aS'WPG'
p1218
assS'2016-03-19'
p1219
(dp1220
I1067
(lp1221
S'PIT'
p1222
aS'PHI'
p1223
asI1068
(lp1224
S'CAR'
p1225
aS'MIN'
p1226
asI1069
(lp1227
S'NYR'
p1228
aS'SJS'
p1229
asI1070
(lp1230
S'BUF'
p1231
aS'TOR'
p1232
asI1071
(lp1233
S'MTL'
p1234
aS'OTT'
p1235
asI1072
(lp1236
S'DET'
p1237
aS'FLA'
p1238
asI1073
(lp1239
S'NJD'
p1240
aS'CBJ'
p1241
asI1074
(lp1242
S'NYI'
p1243
aS'DAL'
p1244
asI1075
(lp1245
S'STL'
p1246
aS'VAN'
p1247
asI1076
(lp1248
S'TBL'
p1249
aS'ARI'
p1250
asI1077
(lp1251
S'BOS'
p1252
aS'LAK'
p1253
assS'2015-12-14'
p1254
(dp1255
I448
(lp1256
S'EDM'
p1257
aS'BOS'
p1258
asI449
(lp1259
S'WSH'
p1260
aS'PIT'
p1261
asI450
(lp1262
S'TBL'
p1263
aS'CBJ'
p1264
asI451
(lp1265
S'LAK'
p1266
aS'OTT'
p1267
asI452
(lp1268
S'BUF'
p1269
aS'DET'
p1270
assS'2015-12-15'
p1271
(dp1272
I453
(lp1273
S'NJD'
p1274
aS'BUF'
p1275
asI454
(lp1276
S'FLA'
p1277
aS'NYI'
p1278
asI455
(lp1279
S'EDM'
p1280
aS'NYR'
p1281
asI456
(lp1282
S'CAR'
p1283
aS'PHI'
p1284
asI457
(lp1285
S'TBL'
p1286
aS'TOR'
p1287
asI458
(lp1288
S'SJS'
p1289
aS'MTL'
p1290
asI459
(lp1291
S'CGY'
p1292
aS'NSH'
p1293
asI460
(lp1294
S'VAN'
p1295
aS'MIN'
p1296
asI461
(lp1297
S'STL'
p1298
aS'WPG'
p1299
asI462
(lp1300
S'COL'
p1301
aS'CHI'
p1302
asI463
(lp1303
S'CBJ'
p1304
aS'DAL'
p1305
assS'2015-12-16'
p1306
(dp1307
I464
(lp1308
S'OTT'
p1309
aS'WSH'
p1310
asI465
(lp1311
S'PIT'
p1312
aS'BOS'
p1313
assS'2015-12-17'
p1314
(dp1315
I466
(lp1316
S'ANA'
p1317
aS'BUF'
p1318
asI467
(lp1319
S'FLA'
p1320
aS'NJD'
p1321
asI468
(lp1322
S'VAN'
p1323
aS'PHI'
p1324
asI469
(lp1325
S'SJS'
p1326
aS'TOR'
p1327
asI470
(lp1328
S'LAK'
p1329
aS'MTL'
p1330
asI471
(lp1331
S'NSH'
p1332
aS'STL'
p1333
asI472
(lp1334
S'NYR'
p1335
aS'MIN'
p1336
asI473
(lp1337
S'EDM'
p1338
aS'CHI'
p1339
asI474
(lp1340
S'CGY'
p1341
aS'DAL'
p1342
asI475
(lp1343
S'NYI'
p1344
aS'COL'
p1345
asI476
(lp1346
S'CBJ'
p1347
aS'ARI'
p1348
assS'2015-12-10'
p1349
(dp1350
I421
(lp1351
S'MTL'
p1352
aS'DET'
p1353
asI422
(lp1354
S'OTT'
p1355
aS'TBL'
p1356
asI423
(lp1357
S'WSH'
p1358
aS'FLA'
p1359
asI424
(lp1360
S'PHI'
p1361
aS'STL'
p1362
asI425
(lp1363
S'CHI'
p1364
aS'NSH'
p1365
asI426
(lp1366
S'CBJ'
p1367
aS'WPG'
p1368
asI427
(lp1369
S'BUF'
p1370
aS'CGY'
p1371
assS'2015-12-11'
p1372
(dp1373
I428
(lp1374
S'DET'
p1375
aS'NJD'
p1376
asI429
(lp1377
S'LAK'
p1378
aS'PIT'
p1379
asI430
(lp1380
S'WPG'
p1381
aS'CHI'
p1382
asI431
(lp1383
S'PHI'
p1384
aS'DAL'
p1385
asI432
(lp1386
S'NYR'
p1387
aS'EDM'
p1388
asI433
(lp1389
S'MIN'
p1390
aS'ARI'
p1391
asI434
(lp1392
S'CAR'
p1393
aS'ANA'
p1394
assS'2015-12-12'
p1395
(dp1396
I435
(lp1397
S'FLA'
p1398
aS'BOS'
p1399
asI436
(lp1400
S'LAK'
p1401
aS'BUF'
p1402
asI437
(lp1403
S'OTT'
p1404
aS'MTL'
p1405
asI438
(lp1406
S'WSH'
p1407
aS'TBL'
p1408
asI439
(lp1409
S'NYI'
p1410
aS'CBJ'
p1411
asI440
(lp1412
S'DAL'
p1413
aS'STL'
p1414
asI441
(lp1415
S'COL'
p1416
aS'NSH'
p1417
asI442
(lp1418
S'CAR'
p1419
aS'ARI'
p1420
asI443
(lp1421
S'NYR'
p1422
aS'CGY'
p1423
asI444
(lp1424
S'MIN'
p1425
aS'SJS'
p1426
assS'2015-12-13'
p1427
(dp1428
I445
(lp1429
S'NJD'
p1430
aS'NYI'
p1431
asI446
(lp1432
S'COL'
p1433
aS'STL'
p1434
asI447
(lp1435
S'VAN'
p1436
aS'CHI'
p1437
assS'2015-10-30'
p1438
(dp1439
I145
(lp1440
S'PHI'
p1441
aS'BUF'
p1442
asI146
(lp1443
S'TOR'
p1444
aS'NYR'
p1445
asI147
(lp1446
S'CBJ'
p1447
aS'WSH'
p1448
asI148
(lp1449
S'COL'
p1450
aS'CAR'
p1451
asI149
(lp1452
S'OTT'
p1453
aS'DET'
p1454
asI150
(lp1455
S'BOS'
p1456
aS'FLA'
p1457
asI151
(lp1458
S'CHI'
p1459
aS'MIN'
p1460
asI152
(lp1461
S'MTL'
p1462
aS'CGY'
p1463
asI153
(lp1464
S'VAN'
p1465
aS'ARI'
p1466
assS'2015-10-31'
p1467
(dp1468
I160
(lp1469
S'WSH'
p1470
aS'FLA'
p1471
asI161
(lp1472
S'WPG'
p1473
aS'CBJ'
p1474
asI162
(lp1475
S'MIN'
p1476
aS'STL'
p1477
asI163
(lp1478
S'CGY'
p1479
aS'EDM'
p1480
asI154
(lp1481
S'NYI'
p1482
aS'NJD'
p1483
asI155
(lp1484
S'SJS'
p1485
aS'DAL'
p1486
asI156
(lp1487
S'NSH'
p1488
aS'LAK'
p1489
asI157
(lp1490
S'PIT'
p1491
aS'TOR'
p1492
asI158
(lp1493
S'DET'
p1494
aS'OTT'
p1495
asI159
(lp1496
S'BOS'
p1497
aS'TBL'
p1498
assS'2016-02-29'
p1499
(dp1500
I937
(lp1501
S'CBJ'
p1502
aS'NYR'
p1503
asI938
(lp1504
S'CGY'
p1505
aS'PHI'
p1506
asI939
(lp1507
S'ARI'
p1508
aS'PIT'
p1509
asI940
(lp1510
S'TBL'
p1511
aS'TOR'
p1512
asI941
(lp1513
S'DET'
p1514
aS'DAL'
p1515
asI942
(lp1516
S'MTL'
p1517
aS'SJS'
p1518
assS'2016-02-28'
p1519
(dp1520
I930
(lp1521
S'WSH'
p1522
aS'CHI'
p1523
asI931
(lp1524
S'STL'
p1525
aS'CAR'
p1526
asI932
(lp1527
S'FLA'
p1528
aS'MIN'
p1529
asI933
(lp1530
S'TBL'
p1531
aS'BOS'
p1532
asI934
(lp1533
S'SJS'
p1534
aS'VAN'
p1535
asI935
(lp1536
S'LAK'
p1537
aS'ANA'
p1538
asI936
(lp1539
S'NYI'
p1540
aS'EDM'
p1541
assS'2015-12-18'
p1542
(dp1543
I480
(lp1544
S'SJS'
p1545
aS'OTT'
p1546
asI481
(lp1547
S'VAN'
p1548
aS'DET'
p1549
asI482
(lp1550
S'NYR'
p1551
aS'WPG'
p1552
asI477
(lp1553
S'BOS'
p1554
aS'PIT'
p1555
asI478
(lp1556
S'TBL'
p1557
aS'WSH'
p1558
asI479
(lp1559
S'FLA'
p1560
aS'CAR'
p1561
assS'2015-12-19'
p1562
(dp1563
I483
(lp1564
S'CHI'
p1565
aS'BUF'
p1566
asI484
(lp1567
S'CGY'
p1568
aS'STL'
p1569
asI485
(lp1570
S'LAK'
p1571
aS'TOR'
p1572
asI486
(lp1573
S'ANA'
p1574
aS'NJD'
p1575
asI487
(lp1576
S'CAR'
p1577
aS'PIT'
p1578
asI488
(lp1579
S'PHI'
p1580
aS'CBJ'
p1581
asI489
(lp1582
S'MTL'
p1583
aS'DAL'
p1584
asI490
(lp1585
S'MIN'
p1586
aS'NSH'
p1587
asI491
(lp1588
S'NYI'
p1589
aS'ARI'
p1590
asI492
(lp1591
S'EDM'
p1592
aS'COL'
p1593
assS'2016-03-13'
p1594
(dp1595
I1032
(lp1596
S'TOR'
p1597
aS'DET'
p1598
asI1030
(lp1599
S'PIT'
p1600
aS'NYR'
p1601
asI1031
(lp1602
S'TBL'
p1603
aS'CBJ'
p1604
assS'2016-03-12'
p1605
(dp1606
I1024
(lp1607
S'COL'
p1608
aS'WPG'
p1609
asI1025
(lp1610
S'STL'
p1611
aS'DAL'
p1612
asI1026
(lp1613
S'ARI'
p1614
aS'EDM'
p1615
asI1027
(lp1616
S'NSH'
p1617
aS'VAN'
p1618
asI1028
(lp1619
S'NJD'
p1620
aS'LAK'
p1621
asI1029
(lp1622
S'WSH'
p1623
aS'SJS'
p1624
asI1018
(lp1625
S'NYI'
p1626
aS'BOS'
p1627
asI1019
(lp1628
S'NYR'
p1629
aS'DET'
p1630
asI1020
(lp1631
S'CAR'
p1632
aS'BUF'
p1633
asI1021
(lp1634
S'MIN'
p1635
aS'MTL'
p1636
asI1022
(lp1637
S'TOR'
p1638
aS'OTT'
p1639
asI1023
(lp1640
S'PHI'
p1641
aS'FLA'
p1642
assS'2016-02-21'
p1643
(dp1644
I883
(lp1645
S'PIT'
p1646
aS'BUF'
p1647
asI884
(lp1648
S'CHI'
p1649
aS'MIN'
p1650
asI885
(lp1651
S'DET'
p1652
aS'NYR'
p1653
asI886
(lp1654
S'TBL'
p1655
aS'CAR'
p1656
asI887
(lp1657
S'CGY'
p1658
aS'ANA'
p1659
asI888
(lp1660
S'COL'
p1661
aS'VAN'
p1662
assS'2016-03-18'
p1663
(dp1664
I1061
(lp1665
S'OTT'
p1666
aS'BUF'
p1667
asI1062
(lp1668
S'NSH'
p1669
aS'WSH'
p1670
asI1063
(lp1671
S'CHI'
p1672
aS'WPG'
p1673
asI1064
(lp1674
S'COL'
p1675
aS'CGY'
p1676
asI1065
(lp1677
S'VAN'
p1678
aS'EDM'
p1679
asI1066
(lp1680
S'BOS'
p1681
aS'ANA'
p1682
assS'2016-01-13'
p1683
(dp1684
I642
(lp1685
S'CBJ'
p1686
aS'TOR'
p1687
asI643
(lp1688
S'BOS'
p1689
aS'PHI'
p1690
asI644
(lp1691
S'FLA'
p1692
aS'CGY'
p1693
asI645
(lp1694
S'OTT'
p1695
aS'ANA'
p1696
assS'2015-11-30'
p1697
(dp1698
I355
(lp1699
S'COL'
p1700
aS'NYI'
p1701
asI356
(lp1702
S'CAR'
p1703
aS'NYR'
p1704
asI357
(lp1705
S'EDM'
p1706
aS'TOR'
p1707
asI358
(lp1708
S'VAN'
p1709
aS'ANA'
p1710
assS'2016-02-23'
p1711
(dp1712
I896
(lp1713
S'CBJ'
p1714
aS'DET'
p1715
asI897
(lp1716
S'ARI'
p1717
aS'TBL'
p1718
asI898
(lp1719
S'NYI'
p1720
aS'MIN'
p1721
asI899
(lp1722
S'DAL'
p1723
aS'WPG'
p1724
asI900
(lp1725
S'OTT'
p1726
aS'EDM'
p1727
asI901
(lp1728
S'CGY'
p1729
aS'LAK'
p1730
asI893
(lp1731
S'NYR'
p1732
aS'NJD'
p1733
asI894
(lp1734
S'PHI'
p1735
aS'CAR'
p1736
asI895
(lp1737
S'NSH'
p1738
aS'TOR'
p1739
assS'2015-12-09'
p1740
(dp1741
I417
(lp1742
S'BOS'
p1743
aS'MTL'
p1744
asI418
(lp1745
S'PIT'
p1746
aS'COL'
p1747
asI419
(lp1748
S'SJS'
p1749
aS'EDM'
p1750
asI420
(lp1751
S'NYR'
p1752
aS'VAN'
p1753
assS'2015-12-08'
p1754
(dp1755
I416
(lp1756
S'SJS'
p1757
aS'CGY'
p1758
asI408
(lp1759
S'NYI'
p1760
aS'PHI'
p1761
asI409
(lp1762
S'DET'
p1763
aS'WSH'
p1764
asI410
(lp1765
S'LAK'
p1766
aS'CBJ'
p1767
asI411
(lp1768
S'NJD'
p1769
aS'TOR'
p1770
asI412
(lp1771
S'OTT'
p1772
aS'FLA'
p1773
asI413
(lp1774
S'ARI'
p1775
aS'STL'
p1776
asI414
(lp1777
S'NSH'
p1778
aS'CHI'
p1779
asI415
(lp1780
S'CAR'
p1781
aS'DAL'
p1782
assS'2016-02-22'
p1783
(dp1784
I889
(lp1785
S'CBJ'
p1786
aS'BOS'
p1787
asI890
(lp1788
S'ARI'
p1789
aS'WSH'
p1790
asI891
(lp1791
S'NSH'
p1792
aS'MTL'
p1793
asI892
(lp1794
S'SJS'
p1795
aS'STL'
p1796
assS'2015-12-03'
p1797
(dp1798
I373
(lp1799
S'COL'
p1800
aS'NYR'
p1801
asI374
(lp1802
S'NJD'
p1803
aS'CAR'
p1804
asI375
(lp1805
S'WSH'
p1806
aS'MTL'
p1807
asI376
(lp1808
S'CHI'
p1809
aS'OTT'
p1810
asI377
(lp1811
S'ARI'
p1812
aS'DET'
p1813
asI378
(lp1814
S'FLA'
p1815
aS'NSH'
p1816
asI379
(lp1817
S'TOR'
p1818
aS'MIN'
p1819
asI380
(lp1820
S'DAL'
p1821
aS'VAN'
p1822
assS'2015-12-02'
p1823
(dp1824
I369
(lp1825
S'TOR'
p1826
aS'WPG'
p1827
asI370
(lp1828
S'NYR'
p1829
aS'NYI'
p1830
asI371
(lp1831
S'BOS'
p1832
aS'EDM'
p1833
asI372
(lp1834
S'TBL'
p1835
aS'ANA'
p1836
assS'2015-12-01'
p1837
(dp1838
I359
(lp1839
S'COL'
p1840
aS'NJD'
p1841
asI360
(lp1842
S'CBJ'
p1843
aS'MTL'
p1844
asI361
(lp1845
S'PHI'
p1846
aS'OTT'
p1847
asI362
(lp1848
S'BUF'
p1849
aS'DET'
p1850
asI363
(lp1851
S'FLA'
p1852
aS'STL'
p1853
asI364
(lp1854
S'ARI'
p1855
aS'NSH'
p1856
asI365
(lp1857
S'MIN'
p1858
aS'CHI'
p1859
asI366
(lp1860
S'DAL'
p1861
aS'CGY'
p1862
asI367
(lp1863
S'VAN'
p1864
aS'LAK'
p1865
asI368
(lp1866
S'PIT'
p1867
aS'SJS'
p1868
assS'2015-12-07'
p1869
(dp1870
I405
(lp1871
S'NSH'
p1872
aS'BOS'
p1873
asI406
(lp1874
S'MIN'
p1875
aS'COL'
p1876
asI407
(lp1877
S'BUF'
p1878
aS'VAN'
p1879
assS'2015-12-06'
p1880
(dp1881
I398
(lp1882
S'ARI'
p1883
aS'CAR'
p1884
asI399
(lp1885
S'WPG'
p1886
aS'CHI'
p1887
asI400
(lp1888
S'FLA'
p1889
aS'NJD'
p1890
asI401
(lp1891
S'OTT'
p1892
aS'NYR'
p1893
asI402
(lp1894
S'BUF'
p1895
aS'EDM'
p1896
asI403
(lp1897
S'PIT'
p1898
aS'ANA'
p1899
asI404
(lp1900
S'TBL'
p1901
aS'LAK'
p1902
assS'2015-12-05'
p1903
(dp1904
I388
(lp1905
S'WSH'
p1906
aS'WPG'
p1907
asI389
(lp1908
S'PIT'
p1909
aS'LAK'
p1910
asI390
(lp1911
S'NYI'
p1912
aS'OTT'
p1913
asI391
(lp1914
S'NSH'
p1915
aS'DET'
p1916
asI392
(lp1917
S'MTL'
p1918
aS'CAR'
p1919
asI393
(lp1920
S'TOR'
p1921
aS'STL'
p1922
asI394
(lp1923
S'CBJ'
p1924
aS'PHI'
p1925
asI395
(lp1926
S'COL'
p1927
aS'MIN'
p1928
asI396
(lp1929
S'BOS'
p1930
aS'VAN'
p1931
asI397
(lp1932
S'TBL'
p1933
aS'SJS'
p1934
assS'2015-12-04'
p1935
(dp1936
I384
(lp1937
S'STL'
p1938
aS'NYI'
p1939
asI385
(lp1940
S'BOS'
p1941
aS'CGY'
p1942
asI386
(lp1943
S'DAL'
p1944
aS'EDM'
p1945
asI387
(lp1946
S'SJS'
p1947
aS'ANA'
p1948
asI381
(lp1949
S'ARI'
p1950
aS'BUF'
p1951
asI382
(lp1952
S'PHI'
p1953
aS'NJD'
p1954
asI383
(lp1955
S'FLA'
p1956
aS'CBJ'
p1957
assS'2016-03-20'
p1958
(dp1959
I1078
(lp1960
S'ANA'
p1961
aS'WPG'
p1962
asI1079
(lp1963
S'CBJ'
p1964
aS'NJD'
p1965
asI1080
(lp1966
S'WSH'
p1967
aS'PIT'
p1968
asI1081
(lp1969
S'CGY'
p1970
aS'MTL'
p1971
asI1082
(lp1972
S'MIN'
p1973
aS'CHI'
p1974
asI1083
(lp1975
S'COL'
p1976
aS'EDM'
p1977
asI1084
(lp1978
S'ARI'
p1979
aS'SJS'
p1980
assS'2016-03-21'
p1981
(dp1982
I1088
(lp1983
S'LAK'
p1984
aS'NSH'
p1985
asI1085
(lp1986
S'PHI'
p1987
aS'NYI'
p1988
asI1086
(lp1989
S'FLA'
p1990
aS'NYR'
p1991
asI1087
(lp1992
S'CGY'
p1993
aS'TOR'
p1994
assS'2016-03-22'
p1995
(dp1996
I1089
(lp1997
S'BUF'
p1998
aS'CAR'
p1999
asI1090
(lp2000
S'PHI'
p2001
aS'CBJ'
p2002
asI1091
(lp2003
S'ANA'
p2004
aS'MTL'
p2005
asI1092
(lp2006
S'WSH'
p2007
aS'OTT'
p2008
asI1093
(lp2009
S'DET'
p2010
aS'TBL'
p2011
asI1094
(lp2012
S'LAK'
p2013
aS'MIN'
p2014
asI1095
(lp2015
S'VAN'
p2016
aS'WPG'
p2017
asI1096
(lp2018
S'DAL'
p2019
aS'CHI'
p2020
asI1097
(lp2021
S'EDM'
p2022
aS'ARI'
p2023
asI1098
(lp2024
S'STL'
p2025
aS'SJS'
p2026
assS'2016-02-20'
p2027
(dp2028
I874
(lp2029
S'TBL'
p2030
aS'PIT'
p2031
asI875
(lp2032
S'PHI'
p2033
aS'TOR'
p2034
asI876
(lp2035
S'DET'
p2036
aS'OTT'
p2037
asI877
(lp2038
S'WPG'
p2039
aS'FLA'
p2040
asI878
(lp2041
S'NJD'
p2042
aS'WSH'
p2043
asI879
(lp2044
S'LAK'
p2045
aS'NSH'
p2046
asI880
(lp2047
S'BOS'
p2048
aS'DAL'
p2049
asI881
(lp2050
S'STL'
p2051
aS'ARI'
p2052
asI882
(lp2053
S'COL'
p2054
aS'EDM'
p2055
assS'2016-03-24'
p2056
(dp2057
I1101
(lp2058
S'FLA'
p2059
aS'BOS'
p2060
asI1102
(lp2061
S'NJD'
p2062
aS'PIT'
p2063
asI1103
(lp2064
S'CAR'
p2065
aS'CBJ'
p2066
asI1104
(lp2067
S'ANA'
p2068
aS'TOR'
p2069
asI1105
(lp2070
S'MTL'
p2071
aS'DET'
p2072
asI1106
(lp2073
S'VAN'
p2074
aS'NSH'
p2075
asI1107
(lp2076
S'CGY'
p2077
aS'MIN'
p2078
asI1108
(lp2079
S'LAK'
p2080
aS'WPG'
p2081
asI1109
(lp2082
S'PHI'
p2083
aS'COL'
p2084
asI1110
(lp2085
S'DAL'
p2086
aS'ARI'
p2087
asI1111
(lp2088
S'EDM'
p2089
aS'SJS'
p2090
assS'2016-03-25'
p2091
(dp2092
I1112
(lp2093
S'WSH'
p2094
aS'NJD'
p2095
asI1113
(lp2096
S'NYI'
p2097
aS'TBL'
p2098
asI1114
(lp2099
S'VAN'
p2100
aS'STL'
p2101
assS'2015-10-29'
p2102
(dp2103
I137
(lp2104
S'CAR'
p2105
aS'NYI'
p2106
asI138
(lp2107
S'NJD'
p2108
aS'PHI'
p2109
asI139
(lp2110
S'BUF'
p2111
aS'PIT'
p2112
asI140
(lp2113
S'COL'
p2114
aS'TBL'
p2115
asI141
(lp2116
S'ANA'
p2117
aS'STL'
p2118
asI142
(lp2119
S'CHI'
p2120
aS'WPG'
p2121
asI143
(lp2122
S'VAN'
p2123
aS'DAL'
p2124
asI144
(lp2125
S'MTL'
p2126
aS'EDM'
p2127
assS'2015-10-28'
p2128
(dp2129
I136
(lp2130
S'NSH'
p2131
aS'SJS'
p2132
asI134
(lp2133
S'CGY'
p2134
aS'OTT'
p2135
asI135
(lp2136
S'PIT'
p2137
aS'WSH'
p2138
assS'2015-10-27'
p2139
(dp2140
I128
(lp2141
S'COL'
p2142
aS'FLA'
p2143
asI129
(lp2144
S'TBL'
p2145
aS'STL'
p2146
asI130
(lp2147
S'EDM'
p2148
aS'MIN'
p2149
asI131
(lp2150
S'LAK'
p2151
aS'WPG'
p2152
asI132
(lp2153
S'ANA'
p2154
aS'DAL'
p2155
asI133
(lp2156
S'MTL'
p2157
aS'VAN'
p2158
asI124
(lp2159
S'ARI'
p2160
aS'BOS'
p2161
asI125
(lp2162
S'CBJ'
p2163
aS'NJD'
p2164
asI126
(lp2165
S'BUF'
p2166
aS'PHI'
p2167
asI127
(lp2168
S'CAR'
p2169
aS'DET'
p2170
assS'2015-10-26'
p2171
(dp2172
I121
(lp2173
S'CGY'
p2174
aS'NYI'
p2175
asI122
(lp2176
S'ARI'
p2177
aS'TOR'
p2178
asI123
(lp2179
S'ANA'
p2180
aS'CHI'
p2181
assS'2015-10-25'
p2182
(dp2183
I120
(lp2184
S'LAK'
p2185
aS'EDM'
p2186
asI118
(lp2187
S'MIN'
p2188
aS'WPG'
p2189
asI119
(lp2190
S'CGY'
p2191
aS'NYR'
p2192
assS'2015-10-24'
p2193
(dp2194
I106
(lp2195
S'ANA'
p2196
aS'MIN'
p2197
asI107
(lp2198
S'NJD'
p2199
aS'BUF'
p2200
asI108
(lp2201
S'TOR'
p2202
aS'MTL'
p2203
asI109
(lp2204
S'ARI'
p2205
aS'OTT'
p2206
asI110
(lp2207
S'NYR'
p2208
aS'PHI'
p2209
asI111
(lp2210
S'NYI'
p2211
aS'STL'
p2212
asI112
(lp2213
S'PIT'
p2214
aS'NSH'
p2215
asI113
(lp2216
S'FLA'
p2217
aS'DAL'
p2218
asI114
(lp2219
S'TBL'
p2220
aS'CHI'
p2221
asI115
(lp2222
S'CBJ'
p2223
aS'COL'
p2224
asI116
(lp2225
S'DET'
p2226
aS'VAN'
p2227
asI117
(lp2228
S'CAR'
p2229
aS'SJS'
p2230
assS'2015-10-23'
p2231
(dp2232
I100
(lp2233
S'MTL'
p2234
aS'BUF'
p2235
asI101
(lp2236
S'BOS'
p2237
aS'NYI'
p2238
asI102
(lp2239
S'TBL'
p2240
aS'WPG'
p2241
asI103
(lp2242
S'DET'
p2243
aS'CGY'
p2244
asI104
(lp2245
S'WSH'
p2246
aS'EDM'
p2247
asI105
(lp2248
S'CAR'
p2249
aS'LAK'
p2250
assS'2015-10-22'
p2251
(dp2252
I96
(lp2253
S'CBJ'
p2254
aS'MIN'
p2255
asI97
(lp2256
S'FLA'
p2257
aS'CHI'
p2258
asI98
(lp2259
S'WSH'
p2260
aS'VAN'
p2261
asI99
(lp2262
S'LAK'
p2263
aS'SJS'
p2264
asI92
(lp2265
S'ARI'
p2266
aS'NYR'
p2267
asI93
(lp2268
S'DAL'
p2269
aS'PIT'
p2270
asI94
(lp2271
S'NJD'
p2272
aS'OTT'
p2273
asI95
(lp2274
S'ANA'
p2275
aS'NSH'
p2276
assS'2015-10-21'
p2277
(dp2278
I88
(lp2279
S'TOR'
p2280
aS'BUF'
p2281
asI89
(lp2282
S'PHI'
p2283
aS'BOS'
p2284
asI90
(lp2285
S'DET'
p2286
aS'EDM'
p2287
asI91
(lp2288
S'CAR'
p2289
aS'COL'
p2290
assS'2015-10-20'
p2291
(dp2292
I81
(lp2293
S'ARI'
p2294
aS'NJD'
p2295
asI82
(lp2296
S'DAL'
p2297
aS'PHI'
p2298
asI83
(lp2299
S'FLA'
p2300
aS'PIT'
p2301
asI84
(lp2302
S'NYI'
p2303
aS'CBJ'
p2304
asI85
(lp2305
S'STL'
p2306
aS'MTL'
p2307
asI86
(lp2308
S'TBL'
p2309
aS'NSH'
p2310
asI87
(lp2311
S'WSH'
p2312
aS'CGY'
p2313
assS'2016-02-27'
p2314
(dp2315
I928
(lp2316
S'OTT'
p2317
aS'CGY'
p2318
asI929
(lp2319
S'BUF'
p2320
aS'LAK'
p2321
asI921
(lp2322
S'ARI'
p2323
aS'PHI'
p2324
asI922
(lp2325
S'WPG'
p2326
aS'PIT'
p2327
asI923
(lp2328
S'FLA'
p2329
aS'CBJ'
p2330
asI924
(lp2331
S'STL'
p2332
aS'NSH'
p2333
asI925
(lp2334
S'NYR'
p2335
aS'DAL'
p2336
asI926
(lp2337
S'TOR'
p2338
aS'MTL'
p2339
asI927
(lp2340
S'DET'
p2341
aS'COL'
p2342
assS'2016-02-25'
p2343
(dp2344
I906
(lp2345
S'MIN'
p2346
aS'PHI'
p2347
asI907
(lp2348
S'NJD'
p2349
aS'CBJ'
p2350
asI908
(lp2351
S'CAR'
p2352
aS'TOR'
p2353
asI909
(lp2354
S'ARI'
p2355
aS'FLA'
p2356
asI910
(lp2357
S'NYR'
p2358
aS'STL'
p2359
asI911
(lp2360
S'NSH'
p2361
aS'CHI'
p2362
asI912
(lp2363
S'WPG'
p2364
aS'DAL'
p2365
asI913
(lp2366
S'NYI'
p2367
aS'CGY'
p2368
asI914
(lp2369
S'OTT'
p2370
aS'VAN'
p2371
asI915
(lp2372
S'EDM'
p2373
aS'LAK'
p2374
assS'2016-02-24'
p2375
(dp2376
I904
(lp2377
S'SJS'
p2378
aS'COL'
p2379
asI905
(lp2380
S'BUF'
p2381
aS'ANA'
p2382
asI902
(lp2383
S'MTL'
p2384
aS'WSH'
p2385
asI903
(lp2386
S'PIT'
p2387
aS'BOS'
p2388
assS'2016-03-15'
p2389
(dp2390
I1039
(lp2391
S'DET'
p2392
aS'PHI'
p2393
asI1040
(lp2394
S'NYI'
p2395
aS'PIT'
p2396
asI1041
(lp2397
S'CAR'
p2398
aS'WSH'
p2399
asI1042
(lp2400
S'TBL'
p2401
aS'TOR'
p2402
asI1043
(lp2403
S'FLA'
p2404
aS'MTL'
p2405
asI1044
(lp2406
S'MIN'
p2407
aS'OTT'
p2408
asI1045
(lp2409
S'LAK'
p2410
aS'DAL'
p2411
asI1046
(lp2412
S'BOS'
p2413
aS'SJS'
p2414
assS'2016-03-14'
p2415
(dp2416
I1033
(lp2417
S'FLA'
p2418
aS'NYI'
p2419
asI1034
(lp2420
S'LAK'
p2421
aS'CHI'
p2422
asI1035
(lp2423
S'STL'
p2424
aS'CGY'
p2425
asI1036
(lp2426
S'NSH'
p2427
aS'EDM'
p2428
asI1037
(lp2429
S'WPG'
p2430
aS'VAN'
p2431
asI1038
(lp2432
S'NJD'
p2433
aS'ANA'
p2434
assS'2016-03-17'
p2435
(dp2436
I1056
(lp2437
S'FLA'
p2438
aS'TOR'
p2439
asI1057
(lp2440
S'NYI'
p2441
aS'NSH'
p2442
asI1058
(lp2443
S'TBL'
p2444
aS'DAL'
p2445
asI1059
(lp2446
S'SJS'
p2447
aS'ARI'
p2448
asI1060
(lp2449
S'NYR'
p2450
aS'LAK'
p2451
asI1053
(lp2452
S'MIN'
p2453
aS'NJD'
p2454
asI1054
(lp2455
S'CAR'
p2456
aS'PIT'
p2457
asI1055
(lp2458
S'DET'
p2459
aS'CBJ'
p2460
assS'2016-02-26'
p2461
(dp2462
I920
(lp2463
S'BUF'
p2464
aS'SJS'
p2465
asI916
(lp2466
S'TBL'
p2467
aS'NJD'
p2468
asI917
(lp2469
S'MIN'
p2470
aS'WSH'
p2471
asI918
(lp2472
S'BOS'
p2473
aS'CAR'
p2474
asI919
(lp2475
S'EDM'
p2476
aS'ANA'
p2477
assS'2016-01-10'
p2478
(dp2479
I624
(lp2480
S'BUF'
p2481
aS'WPG'
p2482
asI625
(lp2483
S'OTT'
p2484
aS'WSH'
p2485
asI626
(lp2486
S'COL'
p2487
aS'CHI'
p2488
asI627
(lp2489
S'NJD'
p2490
aS'MIN'
p2491
asI628
(lp2492
S'DET'
p2493
aS'ANA'
p2494
asI629
(lp2495
S'FLA'
p2496
aS'EDM'
p2497
assS'2016-03-16'
p2498
(dp2499
I1047
(lp2500
S'MTL'
p2501
aS'BUF'
p2502
asI1048
(lp2503
S'PHI'
p2504
aS'CHI'
p2505
asI1049
(lp2506
S'STL'
p2507
aS'EDM'
p2508
asI1050
(lp2509
S'WPG'
p2510
aS'CGY'
p2511
asI1051
(lp2512
S'COL'
p2513
aS'VAN'
p2514
asI1052
(lp2515
S'NYR'
p2516
aS'ANA'
p2517
assS'2016-03-11'
p2518
(dp2519
I1016
(lp2520
S'CHI'
p2521
aS'DAL'
p2522
asI1017
(lp2523
S'ARI'
p2524
aS'CGY'
p2525
asI1013
(lp2526
S'PIT'
p2527
aS'CBJ'
p2528
asI1014
(lp2529
S'PHI'
p2530
aS'TBL'
p2531
asI1015
(lp2532
S'ANA'
p2533
aS'STL'
p2534
assS'2016-03-10'
p2535
(dp2536
I1007
(lp2537
S'CAR'
p2538
aS'BOS'
p2539
asI1008
(lp2540
S'BUF'
p2541
aS'MTL'
p2542
asI1009
(lp2543
S'WPG'
p2544
aS'DET'
p2545
asI1010
(lp2546
S'OTT'
p2547
aS'FLA'
p2548
asI1011
(lp2549
S'EDM'
p2550
aS'MIN'
p2551
asI1012
(lp2552
S'NJD'
p2553
aS'SJS'
p2554
assS'2016-03-31'
p2555
(dp2556
I1152
(lp2557
S'TOR'
p2558
aS'BUF'
p2559
asI1153
(lp2560
S'CBJ'
p2561
aS'NYI'
p2562
asI1154
(lp2563
S'NSH'
p2564
aS'PIT'
p2565
asI1155
(lp2566
S'NYR'
p2567
aS'CAR'
p2568
asI1156
(lp2569
S'MTL'
p2570
aS'TBL'
p2571
asI1157
(lp2572
S'NJD'
p2573
aS'FLA'
p2574
asI1158
(lp2575
S'OTT'
p2576
aS'MIN'
p2577
asI1159
(lp2578
S'ARI'
p2579
aS'DAL'
p2580
asI1160
(lp2581
S'CGY'
p2582
aS'LAK'
p2583
asI1161
(lp2584
S'VAN'
p2585
aS'SJS'
p2586
assS'2016-03-30'
p2587
(dp2588
I1149
(lp2589
S'OTT'
p2590
aS'WPG'
p2591
asI1150
(lp2592
S'WSH'
p2593
aS'PHI'
p2594
asI1151
(lp2595
S'CGY'
p2596
aS'ANA'
p2597
assS'2016-03-08'
p2598
(dp2599
I993
(lp2600
S'NYR'
p2601
aS'BUF'
p2602
asI994
(lp2603
S'PIT'
p2604
aS'NYI'
p2605
asI995
(lp2606
S'OTT'
p2607
aS'CAR'
p2608
asI996
(lp2609
S'DET'
p2610
aS'CBJ'
p2611
asI997
(lp2612
S'DAL'
p2613
aS'MTL'
p2614
asI998
(lp2615
S'BOS'
p2616
aS'TBL'
p2617
asI999
(lp2618
S'NSH'
p2619
aS'WPG'
p2620
asI1000
(lp2621
S'SJS'
p2622
aS'EDM'
p2623
assS'2016-03-09'
p2624
(dp2625
I1001
(lp2626
S'NYI'
p2627
aS'TOR'
p2628
asI1002
(lp2629
S'CHI'
p2630
aS'STL'
p2631
asI1003
(lp2632
S'NSH'
p2633
aS'CGY'
p2634
asI1004
(lp2635
S'ANA'
p2636
aS'COL'
p2637
asI1005
(lp2638
S'ARI'
p2639
aS'VAN'
p2640
asI1006
(lp2641
S'WSH'
p2642
aS'LAK'
p2643
assS'2016-03-06'
p2644
(dp2645
I980
(lp2646
S'DAL'
p2647
aS'OTT'
p2648
asI981
(lp2649
S'PIT'
p2650
aS'NJD'
p2651
asI982
(lp2652
S'NYI'
p2653
aS'NYR'
p2654
asI983
(lp2655
S'DET'
p2656
aS'CHI'
p2657
asI984
(lp2658
S'EDM'
p2659
aS'WPG'
p2660
asI985
(lp2661
S'STL'
p2662
aS'MIN'
p2663
assS'2016-03-07'
p2664
(dp2665
I992
(lp2666
S'VAN'
p2667
aS'LAK'
p2668
asI986
(lp2669
S'TBL'
p2670
aS'PHI'
p2671
asI987
(lp2672
S'BUF'
p2673
aS'TOR'
p2674
asI988
(lp2675
S'BOS'
p2676
aS'FLA'
p2677
asI989
(lp2678
S'ARI'
p2679
aS'COL'
p2680
asI990
(lp2681
S'SJS'
p2682
aS'CGY'
p2683
asI991
(lp2684
S'WSH'
p2685
aS'ANA'
p2686
assS'2016-03-05'
p2687
(dp2688
I969
(lp2689
S'MIN'
p2690
aS'BUF'
p2691
asI970
(lp2692
S'CGY'
p2693
aS'PIT'
p2694
asI971
(lp2695
S'NSH'
p2696
aS'COL'
p2697
asI972
(lp2698
S'ANA'
p2699
aS'LAK'
p2700
asI973
(lp2701
S'WSH'
p2702
aS'BOS'
p2703
asI974
(lp2704
S'OTT'
p2705
aS'TOR'
p2706
asI975
(lp2707
S'CAR'
p2708
aS'TBL'
p2709
asI976
(lp2710
S'CBJ'
p2711
aS'PHI'
p2712
asI977
(lp2713
S'MTL'
p2714
aS'WPG'
p2715
asI978
(lp2716
S'FLA'
p2717
aS'ARI'
p2718
asI979
(lp2719
S'VAN'
p2720
aS'SJS'
p2721
assS'2015-10-16'
p2722
(dp2723
I64
(lp2724
S'MIN'
p2725
aS'LAK'
p2726
asI58
(lp2727
S'SJS'
p2728
aS'NJD'
p2729
asI59
(lp2730
S'TOR'
p2731
aS'CBJ'
p2732
asI60
(lp2733
S'CAR'
p2734
aS'DET'
p2735
asI61
(lp2736
S'CGY'
p2737
aS'WPG'
p2738
asI62
(lp2739
S'STL'
p2740
aS'VAN'
p2741
asI63
(lp2742
S'COL'
p2743
aS'ANA'
p2744
assS'2015-10-17'
p2745
(dp2746
I65
(lp2747
S'DET'
p2748
aS'MTL'
p2749
asI66
(lp2750
S'NSH'
p2751
aS'OTT'
p2752
asI67
(lp2753
S'BUF'
p2754
aS'TBL'
p2755
asI68
(lp2756
S'DAL'
p2757
aS'FLA'
p2758
asI69
(lp2759
S'TOR'
p2760
aS'PIT'
p2761
asI70
(lp2762
S'CAR'
p2763
aS'WSH'
p2764
asI71
(lp2765
S'SJS'
p2766
aS'NYI'
p2767
asI72
(lp2768
S'CBJ'
p2769
aS'CHI'
p2770
asI73
(lp2771
S'EDM'
p2772
aS'CGY'
p2773
asI74
(lp2774
S'BOS'
p2775
aS'ARI'
p2776
assS'2015-10-14'
p2777
(dp2778
I48
(lp2779
S'BOS'
p2780
aS'COL'
p2781
asI49
(lp2782
S'ARI'
p2783
aS'ANA'
p2784
asI46
(lp2785
S'OTT'
p2786
aS'CBJ'
p2787
asI47
(lp2788
S'CHI'
p2789
aS'PHI'
p2790
assS'2015-10-15'
p2791
(dp2792
I50
(lp2793
S'NSH'
p2794
aS'NYI'
p2795
asI51
(lp2796
S'OTT'
p2797
aS'PIT'
p2798
asI52
(lp2799
S'CHI'
p2800
aS'WSH'
p2801
asI53
(lp2802
S'NYR'
p2803
aS'MTL'
p2804
asI54
(lp2805
S'DAL'
p2806
aS'TBL'
p2807
asI55
(lp2808
S'BUF'
p2809
aS'FLA'
p2810
asI56
(lp2811
S'STL'
p2812
aS'EDM'
p2813
asI57
(lp2814
S'MIN'
p2815
aS'ARI'
p2816
assS'2015-10-12'
p2817
(dp2818
I32
(lp2819
S'TBL'
p2820
aS'BOS'
p2821
asI33
(lp2822
S'WPG'
p2823
aS'NYI'
p2824
asI34
(lp2825
S'CBJ'
p2826
aS'BUF'
p2827
asI35
(lp2828
S'FLA'
p2829
aS'PHI'
p2830
asI36
(lp2831
S'VAN'
p2832
aS'ANA'
p2833
assS'2015-10-13'
p2834
(dp2835
I37
(lp2836
S'NSH'
p2837
aS'NJD'
p2838
asI38
(lp2839
S'WPG'
p2840
aS'NYR'
p2841
asI39
(lp2842
S'MTL'
p2843
aS'PIT'
p2844
asI40
(lp2845
S'SJS'
p2846
aS'WSH'
p2847
asI41
(lp2848
S'FLA'
p2849
aS'CAR'
p2850
asI42
(lp2851
S'TBL'
p2852
aS'DET'
p2853
asI43
(lp2854
S'EDM'
p2855
aS'DAL'
p2856
asI44
(lp2857
S'STL'
p2858
aS'CGY'
p2859
asI45
(lp2860
S'VAN'
p2861
aS'LAK'
p2862
assS'2015-10-10'
p2863
(dp2864
I17
(lp2865
S'TBL'
p2866
aS'BUF'
p2867
asI18
(lp2868
S'MTL'
p2869
aS'BOS'
p2870
asI19
(lp2871
S'OTT'
p2872
aS'TOR'
p2873
asI20
(lp2874
S'PHI'
p2875
aS'FLA'
p2876
asI21
(lp2877
S'CBJ'
p2878
aS'NYR'
p2879
asI22
(lp2880
S'NJD'
p2881
aS'WSH'
p2882
asI23
(lp2883
S'DET'
p2884
aS'CAR'
p2885
asI24
(lp2886
S'EDM'
p2887
aS'NSH'
p2888
asI25
(lp2889
S'STL'
p2890
aS'MIN'
p2891
asI26
(lp2892
S'NYI'
p2893
aS'CHI'
p2894
asI27
(lp2895
S'DAL'
p2896
aS'COL'
p2897
asI28
(lp2898
S'CGY'
p2899
aS'VAN'
p2900
asI29
(lp2901
S'PIT'
p2902
aS'ARI'
p2903
asI30
(lp2904
S'ANA'
p2905
aS'SJS'
p2906
assS'2015-10-11'
p2907
(dp2908
I31
(lp2909
S'MTL'
p2910
aS'OTT'
p2911
assS'2015-10-18'
p2912
(dp2913
I75
(lp2914
S'NJD'
p2915
aS'NYR'
p2916
asI76
(lp2917
S'STL'
p2918
aS'WPG'
p2919
asI77
(lp2920
S'MIN'
p2921
aS'ANA'
p2922
asI78
(lp2923
S'EDM'
p2924
aS'VAN'
p2925
asI79
(lp2926
S'COL'
p2927
aS'LAK'
p2928
assS'2015-10-19'
p2929
(dp2930
I80
(lp2931
S'SJS'
p2932
aS'NYR'
p2933
assS'2016-04-03'
p2934
(dp2935
I1178
(lp2936
S'BOS'
p2937
aS'CHI'
p2938
asI1179
(lp2939
S'PHI'
p2940
aS'PIT'
p2941
asI1180
(lp2942
S'MIN'
p2943
aS'WPG'
p2944
asI1181
(lp2945
S'STL'
p2946
aS'COL'
p2947
asI1182
(lp2948
S'DAL'
p2949
aS'ANA'
p2950
assS'2016-04-02'
p2951
(dp2952
I1167
(lp2953
S'PIT'
p2954
aS'NYI'
p2955
asI1168
(lp2956
S'OTT'
p2957
aS'PHI'
p2958
asI1169
(lp2959
S'DAL'
p2960
aS'LAK'
p2961
asI1170
(lp2962
S'DET'
p2963
aS'TOR'
p2964
asI1171
(lp2965
S'NJD'
p2966
aS'TBL'
p2967
asI1172
(lp2968
S'MTL'
p2969
aS'FLA'
p2970
asI1173
(lp2971
S'BUF'
p2972
aS'NYR'
p2973
asI1174
(lp2974
S'CBJ'
p2975
aS'CAR'
p2976
asI1175
(lp2977
S'SJS'
p2978
aS'NSH'
p2979
asI1176
(lp2980
S'CGY'
p2981
aS'EDM'
p2982
asI1177
(lp2983
S'WSH'
p2984
aS'ARI'
p2985
assS'2016-04-01'
p2986
(dp2987
I1162
(lp2988
S'MIN'
p2989
aS'DET'
p2990
asI1163
(lp2991
S'BOS'
p2992
aS'STL'
p2993
asI1164
(lp2994
S'CHI'
p2995
aS'WPG'
p2996
asI1165
(lp2997
S'WSH'
p2998
aS'COL'
p2999
asI1166
(lp3000
S'VAN'
p3001
aS'ANA'
p3002
assS'2016-04-07'
p3003
(dp3004
I1202
(lp3005
S'DET'
p3006
aS'BOS'
p3007
asI1203
(lp3008
S'TBL'
p3009
aS'NJD'
p3010
asI1204
(lp3011
S'NYI'
p3012
aS'NYR'
p3013
asI1205
(lp3014
S'TOR'
p3015
aS'PHI'
p3016
asI1206
(lp3017
S'PIT'
p3018
aS'WSH'
p3019
asI1207
(lp3020
S'MTL'
p3021
aS'CAR'
p3022
asI1208
(lp3023
S'FLA'
p3024
aS'OTT'
p3025
asI1209
(lp3026
S'ARI'
p3027
aS'NSH'
p3028
asI1210
(lp3029
S'STL'
p3030
aS'CHI'
p3031
asI1211
(lp3032
S'COL'
p3033
aS'DAL'
p3034
asI1212
(lp3035
S'VAN'
p3036
aS'CGY'
p3037
asI1213
(lp3038
S'ANA'
p3039
aS'LAK'
p3040
asI1214
(lp3041
S'WPG'
p3042
aS'SJS'
p3043
assS'2016-04-06'
p3044
(dp3045
I1200
(lp3046
S'PHI'
p3047
aS'DET'
p3048
asI1201
(lp3049
S'VAN'
p3050
aS'EDM'
p3051
asI1199
(lp3052
S'CBJ'
p3053
aS'TOR'
p3054
assS'2016-04-05'
p3055
(dp3056
I1188
(lp3057
S'CAR'
p3058
aS'BOS'
p3059
asI1189
(lp3060
S'BUF'
p3061
aS'NJD'
p3062
asI1190
(lp3063
S'TBL'
p3064
aS'NYR'
p3065
asI1191
(lp3066
S'NYI'
p3067
aS'WSH'
p3068
asI1192
(lp3069
S'FLA'
p3070
aS'MTL'
p3071
asI1193
(lp3072
S'PIT'
p3073
aS'OTT'
p3074
asI1194
(lp3075
S'COL'
p3076
aS'NSH'
p3077
asI1195
(lp3078
S'SJS'
p3079
aS'MIN'
p3080
asI1196
(lp3081
S'ARI'
p3082
aS'CHI'
p3083
asI1197
(lp3084
S'LAK'
p3085
aS'CGY'
p3086
asI1198
(lp3087
S'WPG'
p3088
aS'ANA'
p3089
assS'2016-04-04'
p3090
(dp3091
I1184
(lp3092
S'NYR'
p3093
aS'CBJ'
p3094
asI1185
(lp3095
S'FLA'
p3096
aS'TOR'
p3097
asI1186
(lp3098
S'ARI'
p3099
aS'STL'
p3100
asI1187
(lp3101
S'LAK'
p3102
aS'VAN'
p3103
asI1183
(lp3104
S'TBL'
p3105
aS'NYI'
p3106
assS'2016-04-09'
p3107
(dp3108
I1216
(lp3109
S'OTT'
p3110
aS'BOS'
p3111
asI1217
(lp3112
S'DET'
p3113
aS'NYR'
p3114
asI1218
(lp3115
S'PIT'
p3116
aS'PHI'
p3117
asI1219
(lp3118
S'ANA'
p3119
aS'COL'
p3120
asI1220
(lp3121
S'TBL'
p3122
aS'MTL'
p3123
asI1221
(lp3124
S'CAR'
p3125
aS'FLA'
p3126
asI1222
(lp3127
S'TOR'
p3128
aS'NJD'
p3129
asI1223
(lp3130
S'CHI'
p3131
aS'CBJ'
p3132
asI1224
(lp3133
S'CGY'
p3134
aS'MIN'
p3135
asI1225
(lp3136
S'BUF'
p3137
aS'NYI'
p3138
asI1226
(lp3139
S'WSH'
p3140
aS'STL'
p3141
asI1227
(lp3142
S'NSH'
p3143
aS'DAL'
p3144
asI1228
(lp3145
S'EDM'
p3146
aS'VAN'
p3147
asI1229
(lp3148
S'WPG'
p3149
aS'LAK'
p3150
asI1230
(lp3151
S'ARI'
p3152
aS'SJS'
p3153
assS'2016-04-08'
p3154
(dp3155
I1215
(lp3156
S'CBJ'
p3157
aS'BUF'
p3158
assS'2016-01-22'
p3159
(dp3160
I704
(lp3161
S'ANA'
p3162
aS'WSH'
p3163
asI705
(lp3164
S'NYR'
p3165
aS'CAR'
p3166
asI706
(lp3167
S'NYI'
p3168
aS'OTT'
p3169
asI707
(lp3170
S'CHI'
p3171
aS'FLA'
p3172
asI708
(lp3173
S'STL'
p3174
aS'COL'
p3175
asI703
(lp3176
S'DET'
p3177
aS'BUF'
p3178
assS'2016-01-23'
p3179
(dp3180
I709
(lp3181
S'VAN'
p3182
aS'PIT'
p3183
asI710
(lp3184
S'MIN'
p3185
aS'SJS'
p3186
asI711
(lp3187
S'CBJ'
p3188
aS'BOS'
p3189
asI712
(lp3190
S'MTL'
p3191
aS'TOR'
p3192
asI713
(lp3193
S'ANA'
p3194
aS'DET'
p3195
asI714
(lp3196
S'TBL'
p3197
aS'FLA'
p3198
asI715
(lp3199
S'NJD'
p3200
aS'WPG'
p3201
asI716
(lp3202
S'PHI'
p3203
aS'NYI'
p3204
asI717
(lp3205
S'COL'
p3206
aS'DAL'
p3207
asI718
(lp3208
S'LAK'
p3209
aS'ARI'
p3210
asI719
(lp3211
S'NSH'
p3212
aS'EDM'
p3213
assS'2016-01-20'
p3214
(dp3215
I690
(lp3216
S'STL'
p3217
aS'DET'
p3218
asI691
(lp3219
S'BUF'
p3220
aS'COL'
p3221
asI692
(lp3222
S'MIN'
p3223
aS'ANA'
p3224
assS'2016-01-21'
p3225
(dp3226
I693
(lp3227
S'VAN'
p3228
aS'BOS'
p3229
asI694
(lp3230
S'OTT'
p3231
aS'NJD'
p3232
asI695
(lp3233
S'PHI'
p3234
aS'PIT'
p3235
asI696
(lp3236
S'CGY'
p3237
aS'CBJ'
p3238
asI697
(lp3239
S'CAR'
p3240
aS'TOR'
p3241
asI698
(lp3242
S'CHI'
p3243
aS'TBL'
p3244
asI699
(lp3245
S'NSH'
p3246
aS'WPG'
p3247
asI700
(lp3248
S'EDM'
p3249
aS'DAL'
p3250
asI701
(lp3251
S'SJS'
p3252
aS'ARI'
p3253
asI702
(lp3254
S'MIN'
p3255
aS'LAK'
p3256
assS'2016-01-26'
p3257
(dp3258
I736
(lp3259
S'TOR'
p3260
aS'FLA'
p3261
asI737
(lp3262
S'ARI'
p3263
aS'WPG'
p3264
asI738
(lp3265
S'NSH'
p3266
aS'VAN'
p3267
asI739
(lp3268
S'COL'
p3269
aS'SJS'
p3270
asI731
(lp3271
S'ANA'
p3272
aS'BOS'
p3273
asI732
(lp3274
S'NJD'
p3275
aS'PIT'
p3276
asI733
(lp3277
S'CHI'
p3278
aS'CAR'
p3279
asI734
(lp3280
S'CBJ'
p3281
aS'MTL'
p3282
asI735
(lp3283
S'BUF'
p3284
aS'OTT'
p3285
assS'2016-01-27'
p3286
(dp3287
I740
(lp3288
S'TOR'
p3289
aS'TBL'
p3290
asI741
(lp3291
S'PHI'
p3292
aS'WSH'
p3293
asI742
(lp3294
S'NSH'
p3295
aS'CGY'
p3296
asI743
(lp3297
S'COL'
p3298
aS'LAK'
p3299
assS'2016-01-24'
p3300
(dp3301
I720
(lp3302
S'PIT'
p3303
aS'WSH'
p3304
asI721
(lp3305
S'NYR'
p3306
aS'OTT'
p3307
asI722
(lp3308
S'CGY'
p3309
aS'CAR'
p3310
asI723
(lp3311
S'STL'
p3312
aS'CHI'
p3313
asI724
(lp3314
S'LAK'
p3315
aS'SJS'
p3316
assS'2016-01-25'
p3317
(dp3318
I725
(lp3319
S'DET'
p3320
aS'NYI'
p3321
asI726
(lp3322
S'BUF'
p3323
aS'NYR'
p3324
asI727
(lp3325
S'BOS'
p3326
aS'PHI'
p3327
asI728
(lp3328
S'MTL'
p3329
aS'CBJ'
p3330
asI729
(lp3331
S'CGY'
p3332
aS'DAL'
p3333
asI730
(lp3334
S'ARI'
p3335
aS'MIN'
p3336
assS'2016-02-18'
p3337
(dp3338
I864
(lp3339
S'LAK'
p3340
aS'STL'
p3341
asI865
(lp3342
S'BOS'
p3343
aS'NSH'
p3344
asI866
(lp3345
S'MIN'
p3346
aS'EDM'
p3347
asI867
(lp3348
S'DAL'
p3349
aS'ARI'
p3350
asI868
(lp3351
S'ANA'
p3352
aS'VAN'
p3353
asI858
(lp3354
S'WSH'
p3355
aS'NYI'
p3356
asI859
(lp3357
S'DET'
p3358
aS'PIT'
p3359
asI860
(lp3360
S'NYR'
p3361
aS'TOR'
p3362
asI861
(lp3363
S'CAR'
p3364
aS'OTT'
p3365
asI862
(lp3366
S'WPG'
p3367
aS'TBL'
p3368
asI863
(lp3369
S'SJS'
p3370
aS'FLA'
p3371
assS'2016-02-19'
p3372
(dp3373
I872
(lp3374
S'PHI'
p3375
aS'MTL'
p3376
asI873
(lp3377
S'VAN'
p3378
aS'CGY'
p3379
asI869
(lp3380
S'NYI'
p3381
aS'NJD'
p3382
asI870
(lp3383
S'SJS'
p3384
aS'CAR'
p3385
asI871
(lp3386
S'BUF'
p3387
aS'CBJ'
p3388
assS'2016-02-12'
p3389
(dp3390
I818
(lp3391
S'MTL'
p3392
aS'BUF'
p3393
asI819
(lp3394
S'LAK'
p3395
aS'NYR'
p3396
asI820
(lp3397
S'PIT'
p3398
aS'CAR'
p3399
asI821
(lp3400
S'COL'
p3401
aS'DET'
p3402
asI822
(lp3403
S'NSH'
p3404
aS'TBL'
p3405
asI823
(lp3406
S'STL'
p3407
aS'FLA'
p3408
asI824
(lp3409
S'CGY'
p3410
aS'ARI'
p3411
assS'2016-02-13'
p3412
(dp3413
I832
(lp3414
S'ANA'
p3415
aS'CHI'
p3416
asI833
(lp3417
S'WPG'
p3418
aS'EDM'
p3419
asI834
(lp3420
S'ARI'
p3421
aS'SJS'
p3422
asI825
(lp3423
S'NJD'
p3424
aS'PHI'
p3425
asI826
(lp3426
S'BOS'
p3427
aS'MIN'
p3428
asI827
(lp3429
S'NSH'
p3430
aS'FLA'
p3431
asI828
(lp3432
S'NYI'
p3433
aS'CAR'
p3434
asI829
(lp3435
S'OTT'
p3436
aS'CBJ'
p3437
asI830
(lp3438
S'TOR'
p3439
aS'VAN'
p3440
asI831
(lp3441
S'WSH'
p3442
aS'DAL'
p3443
assS'2016-02-10'
p3444
(dp3445
I808
(lp3446
S'VAN'
p3447
aS'ARI'
p3448
asI806
(lp3449
S'OTT'
p3450
aS'DET'
p3451
asI807
(lp3452
S'NYR'
p3453
aS'PIT'
p3454
assS'2016-02-11'
p3455
(dp3456
I809
(lp3457
S'LAK'
p3458
aS'NYI'
p3459
asI810
(lp3460
S'BUF'
p3461
aS'PHI'
p3462
asI811
(lp3463
S'ANA'
p3464
aS'CBJ'
p3465
asI812
(lp3466
S'COL'
p3467
aS'OTT'
p3468
asI813
(lp3469
S'WSH'
p3470
aS'MIN'
p3471
asI814
(lp3472
S'BOS'
p3473
aS'WPG'
p3474
asI815
(lp3475
S'DAL'
p3476
aS'CHI'
p3477
asI816
(lp3478
S'TOR'
p3479
aS'EDM'
p3480
asI817
(lp3481
S'CGY'
p3482
aS'SJS'
p3483
assS'2016-02-16'
p3484
(dp3485
I847
(lp3486
S'PHI'
p3487
aS'NJD'
p3488
asI848
(lp3489
S'LAK'
p3490
aS'WSH'
p3491
asI849
(lp3492
S'WPG'
p3493
aS'CAR'
p3494
asI850
(lp3495
S'BOS'
p3496
aS'CBJ'
p3497
asI851
(lp3498
S'BUF'
p3499
aS'OTT'
p3500
asI852
(lp3501
S'SJS'
p3502
aS'TBL'
p3503
asI853
(lp3504
S'DAL'
p3505
aS'STL'
p3506
asI854
(lp3507
S'ANA'
p3508
aS'EDM'
p3509
assS'2016-02-17'
p3510
(dp3511
I856
(lp3512
S'MTL'
p3513
aS'COL'
p3514
asI857
(lp3515
S'MIN'
p3516
aS'CGY'
p3517
asI855
(lp3518
S'CHI'
p3519
aS'NYR'
p3520
assS'2016-02-14'
p3521
(dp3522
I835
(lp3523
S'COL'
p3524
aS'BUF'
p3525
asI836
(lp3526
S'LAK'
p3527
aS'NJD'
p3528
asI837
(lp3529
S'BOS'
p3530
aS'DET'
p3531
asI838
(lp3532
S'STL'
p3533
aS'TBL'
p3534
asI839
(lp3535
S'PHI'
p3536
aS'NYR'
p3537
assS'2016-02-15'
p3538
(dp3539
I840
(lp3540
S'DET'
p3541
aS'NYI'
p3542
asI841
(lp3543
S'ANA'
p3544
aS'CGY'
p3545
asI842
(lp3546
S'PIT'
p3547
aS'FLA'
p3548
asI843
(lp3549
S'DAL'
p3550
aS'NSH'
p3551
asI844
(lp3552
S'TOR'
p3553
aS'CHI'
p3554
asI845
(lp3555
S'MTL'
p3556
aS'ARI'
p3557
asI846
(lp3558
S'MIN'
p3559
aS'VAN'
p3560
assS'2015-10-07'
p3561
(dp3562
I1
(lp3563
S'MTL'
p3564
aS'TOR'
p3565
asI2
(lp3566
S'NYR'
p3567
aS'CHI'
p3568
asI3
(lp3569
S'VAN'
p3570
aS'CGY'
p3571
asI4
(lp3572
S'SJS'
p3573
aS'LAK'
p3574
assS'2015-10-09'
p3575
(dp3576
I16
(lp3577
S'ARI'
p3578
aS'LAK'
p3579
asI12
(lp3580
S'WPG'
p3581
aS'NJD'
p3582
asI13
(lp3583
S'NYR'
p3584
aS'CBJ'
p3585
asI14
(lp3586
S'TOR'
p3587
aS'DET'
p3588
asI15
(lp3589
S'CHI'
p3590
aS'NYI'
p3591
assS'2015-10-08'
p3592
(dp3593
I5
(lp3594
S'WPG'
p3595
aS'BOS'
p3596
asI6
(lp3597
S'OTT'
p3598
aS'BUF'
p3599
asI7
(lp3600
S'PHI'
p3601
aS'TBL'
p3602
asI8
(lp3603
S'EDM'
p3604
aS'STL'
p3605
asI9
(lp3606
S'CAR'
p3607
aS'NSH'
p3608
asI10
(lp3609
S'PIT'
p3610
aS'DAL'
p3611
asI11
(lp3612
S'MIN'
p3613
aS'COL'
p3614
assS'2015-11-08'
p3615
(dp3616
I211
(lp3617
S'DAL'
p3618
aS'DET'
p3619
asI212
(lp3620
S'VAN'
p3621
aS'NJD'
p3622
asI213
(lp3623
S'BOS'
p3624
aS'NYI'
p3625
asI214
(lp3626
S'EDM'
p3627
aS'CHI'
p3628
assS'2015-11-09'
p3629
(dp3630
I215
(lp3631
S'ARI'
p3632
aS'ANA'
p3633
assS'2016-03-23'
p3634
(dp3635
I1099
(lp3636
S'OTT'
p3637
aS'NYI'
p3638
asI1100
(lp3639
S'BOS'
p3640
aS'NYR'
p3641
assS'2015-11-02'
p3642
(dp3643
I169
(lp3644
S'DAL'
p3645
aS'TOR'
p3646
asI170
(lp3647
S'LAK'
p3648
aS'CHI'
p3649
asI171
(lp3650
S'PHI'
p3651
aS'VAN'
p3652
assS'2015-11-03'
p3653
(dp3654
I172
(lp3655
S'DAL'
p3656
aS'BOS'
p3657
asI173
(lp3658
S'NJD'
p3659
aS'NYI'
p3660
asI174
(lp3661
S'WSH'
p3662
aS'NYR'
p3663
asI175
(lp3664
S'OTT'
p3665
aS'MTL'
p3666
asI176
(lp3667
S'TBL'
p3668
aS'DET'
p3669
asI177
(lp3670
S'LAK'
p3671
aS'STL'
p3672
asI178
(lp3673
S'CGY'
p3674
aS'COL'
p3675
asI179
(lp3676
S'PHI'
p3677
aS'EDM'
p3678
asI180
(lp3679
S'CBJ'
p3680
aS'SJS'
p3681
assS'2015-11-01'
p3682
(dp3683
I168
(lp3684
S'NSH'
p3685
aS'ANA'
p3686
asI164
(lp3687
S'SJS'
p3688
aS'COL'
p3689
asI165
(lp3690
S'TBL'
p3691
aS'CAR'
p3692
asI166
(lp3693
S'WPG'
p3694
aS'MTL'
p3695
asI167
(lp3696
S'BUF'
p3697
aS'NYI'
p3698
assS'2015-11-06'
p3699
(dp3700
I194
(lp3701
S'DET'
p3702
aS'TOR'
p3703
asI195
(lp3704
S'CHI'
p3705
aS'NJD'
p3706
asI196
(lp3707
S'DAL'
p3708
aS'CAR'
p3709
asI197
(lp3710
S'NYR'
p3711
aS'COL'
p3712
asI198
(lp3713
S'PIT'
p3714
aS'EDM'
p3715
asI199
(lp3716
S'CBJ'
p3717
aS'ANA'
p3718
assS'2015-11-07'
p3719
(dp3720
I200
(lp3721
S'VAN'
p3722
aS'BUF'
p3723
asI201
(lp3724
S'FLA'
p3725
aS'LAK'
p3726
asI202
(lp3727
S'BOS'
p3728
aS'MTL'
p3729
asI203
(lp3730
S'TOR'
p3731
aS'WSH'
p3732
asI204
(lp3733
S'OTT'
p3734
aS'CAR'
p3735
asI205
(lp3736
S'PHI'
p3737
aS'WPG'
p3738
asI206
(lp3739
S'STL'
p3740
aS'NSH'
p3741
asI207
(lp3742
S'TBL'
p3743
aS'MIN'
p3744
asI208
(lp3745
S'NYR'
p3746
aS'ARI'
p3747
asI209
(lp3748
S'PIT'
p3749
aS'CGY'
p3750
asI210
(lp3751
S'ANA'
p3752
aS'SJS'
p3753
assS'2015-11-04'
p3754
(dp3755
I184
(lp3756
S'FLA'
p3757
aS'ANA'
p3758
asI181
(lp3759
S'WPG'
p3760
aS'TOR'
p3761
asI182
(lp3762
S'STL'
p3763
aS'CHI'
p3764
asI183
(lp3765
S'PIT'
p3766
aS'VAN'
p3767
assS'2015-11-05'
p3768
(dp3769
I192
(lp3770
S'CBJ'
p3771
aS'LAK'
p3772
asI193
(lp3773
S'FLA'
p3774
aS'SJS'
p3775
asI185
(lp3776
S'TBL'
p3777
aS'BUF'
p3778
asI186
(lp3779
S'BOS'
p3780
aS'WSH'
p3781
asI187
(lp3782
S'NYI'
p3783
aS'MTL'
p3784
asI188
(lp3785
S'WPG'
p3786
aS'OTT'
p3787
asI189
(lp3788
S'NSH'
p3789
aS'MIN'
p3790
asI190
(lp3791
S'PHI'
p3792
aS'CGY'
p3793
asI191
(lp3794
S'COL'
p3795
aS'ARI'
p3796
assS'2016-02-09'
p3797
(dp3798
I800
(lp3799
S'WPG'
p3800
aS'STL'
p3801
asI801
(lp3802
S'WSH'
p3803
aS'NSH'
p3804
asI802
(lp3805
S'DAL'
p3806
aS'MIN'
p3807
asI803
(lp3808
S'SJS'
p3809
aS'CHI'
p3810
asI804
(lp3811
S'VAN'
p3812
aS'COL'
p3813
asI805
(lp3814
S'TOR'
p3815
aS'CGY'
p3816
asI794
(lp3817
S'LAK'
p3818
aS'BOS'
p3819
asI795
(lp3820
S'FLA'
p3821
aS'BUF'
p3822
asI796
(lp3823
S'EDM'
p3824
aS'NJD'
p3825
asI797
(lp3826
S'ANA'
p3827
aS'PHI'
p3828
asI798
(lp3829
S'NYI'
p3830
aS'CBJ'
p3831
asI799
(lp3832
S'TBL'
p3833
aS'MTL'
p3834
assS'2016-02-08'
p3835
(dp3836
I792
(lp3837
S'TBL'
p3838
aS'OTT'
p3839
asI793
(lp3840
S'FLA'
p3841
aS'DET'
p3842
asI790
(lp3843
S'NJD'
p3844
aS'NYR'
p3845
asI791
(lp3846
S'ANA'
p3847
aS'PIT'
p3848
assS'2015-12-30'
p3849
(dp3850
I552
(lp3851
S'BUF'
p3852
aS'WSH'
p3853
asI553
(lp3854
S'NJD'
p3855
aS'OTT'
p3856
asI554
(lp3857
S'NYR'
p3858
aS'TBL'
p3859
asI555
(lp3860
S'PHI'
p3861
aS'SJS'
p3862
asI551
(lp3863
S'TOR'
p3864
aS'PIT'
p3865
assS'2015-12-31'
p3866
(dp3867
I556
(lp3868
S'NYI'
p3869
aS'BUF'
p3870
asI557
(lp3871
S'PIT'
p3872
aS'DET'
p3873
asI558
(lp3874
S'WSH'
p3875
aS'CAR'
p3876
asI559
(lp3877
S'MIN'
p3878
aS'STL'
p3879
asI560
(lp3880
S'CHI'
p3881
aS'COL'
p3882
asI561
(lp3883
S'NSH'
p3884
aS'DAL'
p3885
asI562
(lp3886
S'LAK'
p3887
aS'CGY'
p3888
asI563
(lp3889
S'ANA'
p3890
aS'EDM'
p3891
asI564
(lp3892
S'WPG'
p3893
aS'ARI'
p3894
assS'2016-02-03'
p3895
(dp3896
I756
(lp3897
S'BUF'
p3898
aS'MTL'
p3899
asI757
(lp3900
S'DET'
p3901
aS'TBL'
p3902
asI758
(lp3903
S'CAR'
p3904
aS'CGY'
p3905
assS'2016-02-02'
p3906
(dp3907
I744
(lp3908
S'TOR'
p3909
aS'BOS'
p3910
asI745
(lp3911
S'NYR'
p3912
aS'NJD'
p3913
asI746
(lp3914
S'MIN'
p3915
aS'NYI'
p3916
asI747
(lp3917
S'MTL'
p3918
aS'PHI'
p3919
asI748
(lp3920
S'OTT'
p3921
aS'PIT'
p3922
asI749
(lp3923
S'FLA'
p3924
aS'WSH'
p3925
asI750
(lp3926
S'STL'
p3927
aS'NSH'
p3928
asI751
(lp3929
S'DAL'
p3930
aS'WPG'
p3931
asI752
(lp3932
S'CHI'
p3933
aS'COL'
p3934
asI753
(lp3935
S'CBJ'
p3936
aS'EDM'
p3937
asI754
(lp3938
S'LAK'
p3939
aS'ARI'
p3940
asI755
(lp3941
S'SJS'
p3942
aS'ANA'
p3943
assS'2016-02-05'
p3944
(dp3945
I771
(lp3946
S'PIT'
p3947
aS'TBL'
p3948
asI772
(lp3949
S'CAR'
p3950
aS'WPG'
p3951
asI773
(lp3952
S'CBJ'
p3953
aS'CGY'
p3954
asI774
(lp3955
S'ARI'
p3956
aS'ANA'
p3957
assS'2016-02-04'
p3958
(dp3959
I768
(lp3960
S'CHI'
p3961
aS'ARI'
p3962
asI769
(lp3963
S'CBJ'
p3964
aS'VAN'
p3965
asI770
(lp3966
S'ANA'
p3967
aS'LAK'
p3968
asI759
(lp3969
S'BOS'
p3970
aS'BUF'
p3971
asI760
(lp3972
S'MIN'
p3973
aS'NYR'
p3974
asI761
(lp3975
S'NYI'
p3976
aS'WSH'
p3977
asI762
(lp3978
S'NJD'
p3979
aS'TOR'
p3980
asI763
(lp3981
S'EDM'
p3982
aS'OTT'
p3983
asI764
(lp3984
S'DET'
p3985
aS'FLA'
p3986
asI765
(lp3987
S'SJS'
p3988
aS'STL'
p3989
asI766
(lp3990
S'PHI'
p3991
aS'NSH'
p3992
asI767
(lp3993
S'DAL'
p3994
aS'COL'
p3995
assS'2016-02-07'
p3996
(dp3997
I787
(lp3998
S'PHI'
p3999
aS'WSH'
p4000
asI788
(lp4001
S'CAR'
p4002
aS'MTL'
p4003
asI789
(lp4004
S'EDM'
p4005
aS'NYI'
p4006
assS'2016-02-06'
p4007
(dp4008
I775
(lp4009
S'WSH'
p4010
aS'NJD'
p4011
asI776
(lp4012
S'NYR'
p4013
aS'PHI'
p4014
asI777
(lp4015
S'EDM'
p4016
aS'MTL'
p4017
asI778
(lp4018
S'NYI'
p4019
aS'DET'
p4020
asI779
(lp4021
S'BUF'
p4022
aS'BOS'
p4023
asI780
(lp4024
S'TOR'
p4025
aS'OTT'
p4026
asI781
(lp4027
S'PIT'
p4028
aS'FLA'
p4029
asI782
(lp4030
S'MIN'
p4031
aS'STL'
p4032
asI783
(lp4033
S'SJS'
p4034
aS'NSH'
p4035
asI784
(lp4036
S'CHI'
p4037
aS'DAL'
p4038
asI785
(lp4039
S'WPG'
p4040
aS'COL'
p4041
asI786
(lp4042
S'CGY'
p4043
aS'VAN'
p4044
ass.